---
triple:          'arm64-apple-darwin'
binary-path:     a.out
relocations:
  - { offsetInCU: 0x5C, offset: 0x5C, size: 0x8, addend: 0x0, symName: __ZNSt3__1L19piecewise_constructE, symObjAddr: 0x139F4, symBinAddr: 0x1000171F0, symSize: 0x0 }
  - { offsetInCU: 0x3666, offset: 0x3666, size: 0x8, addend: 0x0, symName: __ZNSt3__16chronomiB8ue170006IxNS_5ratioILl1ELl1000000000EEExS3_EENS_11common_typeIJNS0_8durationIT_T0_EENS5_IT1_T2_EEEE4typeERKS8_RKSB_, symObjAddr: 0x12A08, symBinAddr: 0x1000162A4, symSize: 0x70 }
  - { offsetInCU: 0x36D3, offset: 0x36D3, size: 0x8, addend: 0x0, symName: __ZNSt3__16chronomiB8ue170006INS0_12steady_clockENS0_8durationIxNS_5ratioILl1ELl1000000000EEEEES6_EENS_11common_typeIJT0_T1_EE4typeERKNS0_10time_pointIT_S8_EERKNSC_ISD_S9_EE, symObjAddr: 0x7930, symBinAddr: 0x10000B1CC, symSize: 0x58 }
  - { offsetInCU: 0x372B, offset: 0x372B, size: 0x8, addend: 0x0, symName: __ZNSt3__16chrono13duration_castB8ue170006INS0_8durationIdNS_5ratioILl1ELl1EEEEExNS3_ILl1ELl1000000000EEEEENS_9enable_ifIXsr13__is_durationIT_EE5valueES8_E4typeERKNS2_IT0_T1_EE, symObjAddr: 0x7C2C, symBinAddr: 0x10000B4C8, symSize: 0x30 }
  - { offsetInCU: 0x70D5, offset: 0x70D5, size: 0x8, addend: 0x0, symName: __ZNSt3__17advanceB8ue170006IPdllvEEvRT_T0_, symObjAddr: 0xC72C, symBinAddr: 0x10000FFC8, symSize: 0x38 }
  - { offsetInCU: 0xC54B, offset: 0xC54B, size: 0x8, addend: 0x0, symName: __ZNSt3__124__put_character_sequenceB8ue170006IcNS_11char_traitsIcEEEERNS_13basic_ostreamIT_T0_EES7_PKS4_m, symObjAddr: 0x11110, symBinAddr: 0x1000149AC, symSize: 0x1EC }
  - { offsetInCU: 0xEB67, offset: 0xEB67, size: 0x8, addend: 0x0, symName: __ZNSt3__1lsB8ue170006INS_11char_traitsIcEEEERNS_13basic_ostreamIcT_EES6_PKc, symObjAddr: 0x59AC, symBinAddr: 0x100009248, symSize: 0x48 }
  - { offsetInCU: 0xEBAD, offset: 0xEBAD, size: 0x8, addend: 0x0, symName: __ZNSt3__112defaultfloatB8ue170006ERNS_8ios_baseE, symObjAddr: 0x5AB0, symBinAddr: 0x10000934C, symSize: 0x2C }
  - { offsetInCU: 0xEBDB, offset: 0xEBDB, size: 0x8, addend: 0x0, symName: __ZNSt3__1lsB8ue170006IcNS_11char_traitsIcEEEERNS_13basic_ostreamIT_T0_EES7_RKNS_8__iom_t5E, symObjAddr: 0x5ADC, symBinAddr: 0x100009378, symSize: 0x40 }
  - { offsetInCU: 0xEC27, offset: 0xEC27, size: 0x8, addend: 0x0, symName: __ZNSt3__15fixedB8ue170006ERNS_8ios_baseE, symObjAddr: 0x5B1C, symBinAddr: 0x1000093B8, symSize: 0x30 }
  - { offsetInCU: 0xEC55, offset: 0xEC55, size: 0x8, addend: 0x0, symName: __ZNSt3__112setprecisionB8ue170006Ei, symObjAddr: 0x5B4C, symBinAddr: 0x1000093E8, symSize: 0x2C }
  - { offsetInCU: 0xF30A, offset: 0xF30A, size: 0x8, addend: 0x0, symName: __ZNSt3__1eqB8ue170006IcNS_11char_traitsIcEENS_9allocatorIcEEEEbRKNS_12basic_stringIT_T0_T1_EEPKS6_, symObjAddr: 0x7624, symBinAddr: 0x10000AEC0, symSize: 0xAC }
  - { offsetInCU: 0xF371, offset: 0xF371, size: 0x8, addend: 0x0, symName: __ZNSt3__1neB8ue170006ERKNS_14__map_iteratorINS_15__tree_iteratorINS_12__value_typeINS_12basic_stringIcNS_11char_traitsIcEENS_9allocatorIcEEEENS_3mapIS8_NS_6vectorIdNS6_IdEEEENS_4lessIS8_EENS6_INS_4pairIKS8_SC_EEEEEEEEPNS_11__tree_nodeISK_PvEElEEEESS_, symObjAddr: 0x76D0, symBinAddr: 0x10000AF6C, symSize: 0x30 }
  - { offsetInCU: 0xF3AE, offset: 0xF3AE, size: 0x8, addend: 0x0, symName: __ZNSt3__14endlB8ue170006IcNS_11char_traitsIcEEEERNS_13basic_ostreamIT_T0_EES7_, symObjAddr: 0x78A4, symBinAddr: 0x10000B140, symSize: 0x58 }
  - { offsetInCU: 0xF415, offset: 0xF415, size: 0x8, addend: 0x0, symName: __ZNSt3__112__to_addressB8ue170006IdEEPT_S2_, symObjAddr: 0x83F4, symBinAddr: 0x10000BC90, symSize: 0x14 }
  - { offsetInCU: 0xF44A, offset: 0xF44A, size: 0x8, addend: 0x0, symName: __ZNSt3__13maxB8ue170006ImEERKT_S3_S3_, symObjAddr: 0x85B4, symBinAddr: 0x10000BE50, symSize: 0x2C }
  - { offsetInCU: 0xF48D, offset: 0xF48D, size: 0x8, addend: 0x0, symName: __ZNSt3__13minB8ue170006ImEERKT_S3_S3_, symObjAddr: 0x85E0, symBinAddr: 0x10000BE7C, symSize: 0x2C }
  - { offsetInCU: 0xF6D1, offset: 0xF6D1, size: 0x8, addend: 0x0, symName: __ZNSt3__13minB8ue170006ImNS_6__lessIvvEEEERKT_S5_S5_T0_, symObjAddr: 0x8678, symBinAddr: 0x10000BF14, symSize: 0x54 }
  - { offsetInCU: 0xF770, offset: 0xF770, size: 0x8, addend: 0x0, symName: __ZNSt3__120__throw_length_errorB8ue170006EPKc, symObjAddr: 0x8754, symBinAddr: 0x10000BFF0, symSize: 0x64 }
  - { offsetInCU: 0xF79A, offset: 0xF79A, size: 0x8, addend: 0x0, symName: __ZNSt3__13maxB8ue170006ImNS_6__lessIvvEEEERKT_S5_S5_T0_, symObjAddr: 0x8898, symBinAddr: 0x10000C134, symSize: 0x54 }
  - { offsetInCU: 0xF7F4, offset: 0xF7F4, size: 0x8, addend: 0x0, symName: __ZNSt3__119__allocate_at_leastB8ue170006INS_9allocatorIdEEEENS_19__allocation_resultINS_16allocator_traitsIT_E7pointerEEERS5_m, symObjAddr: 0x89FC, symBinAddr: 0x10000C298, symSize: 0x40 }
  - { offsetInCU: 0xF837, offset: 0xF837, size: 0x8, addend: 0x0, symName: __ZNSt3__117__libcpp_allocateB8ue170006Emm, symObjAddr: 0x8B9C, symBinAddr: 0x10000C438, symSize: 0x28 }
  - { offsetInCU: 0xF874, offset: 0xF874, size: 0x8, addend: 0x0, symName: __ZNSt3__121__libcpp_operator_newB8ue170006IJmEEEPvDpT_, symObjAddr: 0x8BC4, symBinAddr: 0x10000C460, symSize: 0x24 }
  - { offsetInCU: 0xF8AD, offset: 0xF8AD, size: 0x8, addend: 0x0, symName: __ZNSt3__142__uninitialized_allocator_move_if_noexceptB8ue170006INS_9allocatorIdEENS_16reverse_iteratorIPdEES5_dvEET1_RT_T0_S9_S6_, symObjAddr: 0x8DD0, symBinAddr: 0x10000C66C, symSize: 0x78 }
  - { offsetInCU: 0xF92A, offset: 0xF92A, size: 0x8, addend: 0x0, symName: __ZNSt3__14swapB8ue170006IPdEENS_9enable_ifIXaasr21is_move_constructibleIT_EE5valuesr18is_move_assignableIS3_EE5valueEvE4typeERS3_S6_, symObjAddr: 0x8E94, symBinAddr: 0x10000C730, symSize: 0x3C }
  - { offsetInCU: 0xF97B, offset: 0xF97B, size: 0x8, addend: 0x0, symName: __ZNSt3__14moveB8ue170006INS_16reverse_iteratorIPdEES3_EET0_T_S5_S4_, symObjAddr: 0x8FC4, symBinAddr: 0x10000C860, symSize: 0x78 }
  - { offsetInCU: 0xF9D5, offset: 0xF9D5, size: 0x8, addend: 0x0, symName: __ZNSt3__16__moveB8ue170006INS_17_ClassicAlgPolicyENS_16reverse_iteratorIPdEES4_S4_EENS_4pairIT0_T2_EES6_T1_S7_, symObjAddr: 0x903C, symBinAddr: 0x10000C8D8, symSize: 0x64 }
  - { offsetInCU: 0xFA41, offset: 0xFA41, size: 0x8, addend: 0x0, symName: __ZNSt3__123__dispatch_copy_or_moveB8ue170006INS_17_ClassicAlgPolicyENS_11__move_loopIS1_EENS_14__move_trivialENS_16reverse_iteratorIPdEES7_S7_EENS_4pairIT2_T4_EES9_T3_SA_, symObjAddr: 0x90A0, symBinAddr: 0x10000C93C, symSize: 0x64 }
  - { offsetInCU: 0xFABF, offset: 0xFABF, size: 0x8, addend: 0x0, symName: __ZNSt3__121__unwrap_and_dispatchB8ue170006INS_10__overloadINS_11__move_loopINS_17_ClassicAlgPolicyEEENS_14__move_trivialEEENS_16reverse_iteratorIPdEES9_S9_Li0EEENS_4pairIT0_T2_EESB_T1_SC_, symObjAddr: 0x9104, symBinAddr: 0x10000C9A0, symSize: 0x12C }
  - { offsetInCU: 0xFB4F, offset: 0xFB4F, size: 0x8, addend: 0x0, symName: __ZNSt3__114__unwrap_rangeB8ue170006INS_16reverse_iteratorIPdEES3_EENS_4pairIT0_S5_EET_S7_, symObjAddr: 0x9230, symBinAddr: 0x10000CACC, symSize: 0x84 }
  - { offsetInCU: 0xFCCA, offset: 0xFCCA, size: 0x8, addend: 0x0, symName: __ZNSt3__113__unwrap_iterB8ue170006INS_16reverse_iteratorIPdEENS_18__unwrap_iter_implIS3_Lb0EEELi0EEEDTclsrT0_8__unwrapclsr3stdE7declvalIT_EEEES7_, symObjAddr: 0x9354, symBinAddr: 0x10000CBF0, symSize: 0x44 }
  - { offsetInCU: 0xFD0E, offset: 0xFD0E, size: 0x8, addend: 0x0, symName: __ZNSt3__19make_pairB8ue170006INS_16reverse_iteratorIPdEES3_EENS_4pairINS_18__unwrap_ref_decayIT_E4typeENS5_IT0_E4typeEEEOS6_OS9_, symObjAddr: 0x9398, symBinAddr: 0x10000CC34, symSize: 0x38 }
  - { offsetInCU: 0xFD5D, offset: 0xFD5D, size: 0x8, addend: 0x0, symName: __ZNSt3__114__rewrap_rangeB8ue170006INS_16reverse_iteratorIPdEES3_EET_S4_T0_, symObjAddr: 0x93D0, symBinAddr: 0x10000CC6C, symSize: 0x5C }
  - { offsetInCU: 0xFDA9, offset: 0xFDA9, size: 0x8, addend: 0x0, symName: __ZNSt3__113__rewrap_iterB8ue170006INS_16reverse_iteratorIPdEES3_NS_18__unwrap_iter_implIS3_Lb0EEEEET_S6_T0_, symObjAddr: 0x942C, symBinAddr: 0x10000CCC8, symSize: 0x74 }
  - { offsetInCU: 0xFDFE, offset: 0xFDFE, size: 0x8, addend: 0x0, symName: __ZNSt3__1neB8ue170006IPdS1_EEbRKNS_16reverse_iteratorIT_EERKNS2_IT0_EE, symObjAddr: 0x94A0, symBinAddr: 0x10000CD3C, symSize: 0x48 }
  - { offsetInCU: 0xFEFC, offset: 0xFEFC, size: 0x8, addend: 0x0, symName: __ZNSt3__119__libcpp_deallocateB8ue170006EPvmm, symObjAddr: 0x9898, symBinAddr: 0x10000D134, symSize: 0x30 }
  - { offsetInCU: 0xFF44, offset: 0xFF44, size: 0x8, addend: 0x0, symName: __ZNSt3__127__do_deallocate_handle_sizeB8ue170006IJEEEvPvmDpT_, symObjAddr: 0x98C8, symBinAddr: 0x10000D164, symSize: 0x28 }
  - { offsetInCU: 0xFF82, offset: 0xFF82, size: 0x8, addend: 0x0, symName: __ZNSt3__124__libcpp_operator_deleteB8ue170006IJPvEEEvDpT_, symObjAddr: 0x98F0, symBinAddr: 0x10000D18C, symSize: 0x24 }
  - { offsetInCU: 0xFFB7, offset: 0xFFB7, size: 0x8, addend: 0x0, symName: __ZNSt3__122__make_exception_guardB8ue170006INS_6vectorIdNS_9allocatorIdEEE16__destroy_vectorEEENS_28__exception_guard_exceptionsIT_EES7_, symObjAddr: 0x9BB8, symBinAddr: 0x10000D454, symSize: 0x40 }
  - { offsetInCU: 0xFFEC, offset: 0xFFEC, size: 0x8, addend: 0x0, symName: __ZNSt3__112__to_addressB8ue170006INS_6vectorIdNS_9allocatorIdEEEEEEPT_S6_, symObjAddr: 0xA5CC, symBinAddr: 0x10000DE68, symSize: 0x14 }
  - { offsetInCU: 0x10021, offset: 0x10021, size: 0x8, addend: 0x0, symName: __ZNSt3__130__uninitialized_allocator_copyB8ue170006INS_9allocatorIdEEPdS3_S3_EET2_RT_T0_T1_S4_, symObjAddr: 0xA93C, symBinAddr: 0x10000E1D8, symSize: 0x80 }
  - { offsetInCU: 0x100BE, offset: 0x100BE, size: 0x8, addend: 0x0, symName: __ZNSt3__114__unwrap_rangeB8ue170006IPdS1_EENS_4pairIT0_S3_EET_S5_, symObjAddr: 0xA9BC, symBinAddr: 0x10000E258, symSize: 0x60 }
  - { offsetInCU: 0x1010A, offset: 0x1010A, size: 0x8, addend: 0x0, symName: __ZNSt3__135__uninitialized_allocator_copy_implB8ue170006INS_9allocatorIdEEdddLPv0EEEPT2_RT_PT0_S9_S5_, symObjAddr: 0xAA1C, symBinAddr: 0x10000E2B8, symSize: 0x38 }
  - { offsetInCU: 0x1018B, offset: 0x1018B, size: 0x8, addend: 0x0, symName: __ZNSt3__113__unwrap_iterB8ue170006IPdNS_18__unwrap_iter_implIS1_Lb1EEELi0EEEDTclsrT0_8__unwrapclsr3stdE7declvalIT_EEEES5_, symObjAddr: 0xAA54, symBinAddr: 0x10000E2F0, symSize: 0x24 }
  - { offsetInCU: 0x101CF, offset: 0x101CF, size: 0x8, addend: 0x0, symName: __ZNSt3__113__rewrap_iterB8ue170006IPdS1_NS_18__unwrap_iter_implIS1_Lb1EEEEET_S4_T0_, symObjAddr: 0xAA78, symBinAddr: 0x10000E314, symSize: 0x3C }
  - { offsetInCU: 0x10224, offset: 0x10224, size: 0x8, addend: 0x0, symName: __ZNSt3__19make_pairB8ue170006IPdS1_EENS_4pairINS_18__unwrap_ref_decayIT_E4typeENS3_IT0_E4typeEEEOS4_OS7_, symObjAddr: 0xAAB4, symBinAddr: 0x10000E350, symSize: 0x38 }
  - { offsetInCU: 0x10376, offset: 0x10376, size: 0x8, addend: 0x0, symName: __ZNSt3__14copyB8ue170006IPdS1_EET0_T_S3_S2_, symObjAddr: 0xAB5C, symBinAddr: 0x10000E3F8, symSize: 0x40 }
  - { offsetInCU: 0x103D0, offset: 0x103D0, size: 0x8, addend: 0x0, symName: __ZNSt3__16__copyB8ue170006INS_17_ClassicAlgPolicyEPdS2_S2_EENS_4pairIT0_T2_EES4_T1_S5_, symObjAddr: 0xAB9C, symBinAddr: 0x10000E438, symSize: 0x44 }
  - { offsetInCU: 0x1043C, offset: 0x1043C, size: 0x8, addend: 0x0, symName: __ZNSt3__123__dispatch_copy_or_moveB8ue170006INS_17_ClassicAlgPolicyENS_11__copy_loopIS1_EENS_14__copy_trivialEPdS5_S5_EENS_4pairIT2_T4_EES7_T3_S8_, symObjAddr: 0xABE0, symBinAddr: 0x10000E47C, symSize: 0x44 }
  - { offsetInCU: 0x104BA, offset: 0x104BA, size: 0x8, addend: 0x0, symName: __ZNSt3__121__unwrap_and_dispatchB8ue170006INS_10__overloadINS_11__copy_loopINS_17_ClassicAlgPolicyEEENS_14__copy_trivialEEEPdS7_S7_Li0EEENS_4pairIT0_T2_EES9_T1_SA_, symObjAddr: 0xAC24, symBinAddr: 0x10000E4C0, symSize: 0xB4 }
  - { offsetInCU: 0x105CA, offset: 0x105CA, size: 0x8, addend: 0x0, symName: __ZNSt3__114__rewrap_rangeB8ue170006IPdS1_EET_S2_T0_, symObjAddr: 0xAD20, symBinAddr: 0x10000E5BC, symSize: 0x2C }
  - { offsetInCU: 0x10616, offset: 0x10616, size: 0x8, addend: 0x0, symName: __ZNSt3__119__copy_trivial_implB8ue170006IddEENS_4pairIPT_PT0_EES3_S3_S5_, symObjAddr: 0xAD4C, symBinAddr: 0x10000E5E8, symSize: 0x80 }
  - { offsetInCU: 0x1067E, offset: 0x1067E, size: 0x8, addend: 0x0, symName: __ZNSt3__119__constexpr_memmoveB8ue170006IddLi0EEEPT_S2_PT0_NS_15__element_countE, symObjAddr: 0xADCC, symBinAddr: 0x10000E668, symSize: 0x64 }
  - { offsetInCU: 0x106EC, offset: 0x106EC, size: 0x8, addend: 0x0, symName: __ZNSt3__19make_pairB8ue170006IRPdS1_EENS_4pairINS_18__unwrap_ref_decayIT_E4typeENS4_IT0_E4typeEEEOS5_OS8_, symObjAddr: 0xAE30, symBinAddr: 0x10000E6CC, symSize: 0x38 }
  - { offsetInCU: 0x1078E, offset: 0x1078E, size: 0x8, addend: 0x0, symName: __ZNSt3__119__allocate_at_leastB8ue170006INS_9allocatorINS_6vectorIdNS1_IdEEEEEEEENS_19__allocation_resultINS_16allocator_traitsIT_E7pointerEEERS8_m, symObjAddr: 0xB278, symBinAddr: 0x10000EB14, symSize: 0x40 }
  - { offsetInCU: 0x107D1, offset: 0x107D1, size: 0x8, addend: 0x0, symName: __ZNSt3__142__uninitialized_allocator_move_if_noexceptB8ue170006INS_9allocatorINS_6vectorIdNS1_IdEEEEEENS_16reverse_iteratorIPS4_EES8_S8_EET2_RT_T0_T1_S9_, symObjAddr: 0xB5F4, symBinAddr: 0x10000EE90, symSize: 0x12C }
  - { offsetInCU: 0x10871, offset: 0x10871, size: 0x8, addend: 0x0, symName: __ZNSt3__14swapB8ue170006IPNS_6vectorIdNS_9allocatorIdEEEEEENS_9enable_ifIXaasr21is_move_constructibleIT_EE5valuesr18is_move_assignableIS7_EE5valueEvE4typeERS7_SA_, symObjAddr: 0xB76C, symBinAddr: 0x10000F008, symSize: 0x3C }
  - { offsetInCU: 0x108C2, offset: 0x108C2, size: 0x8, addend: 0x0, symName: __ZNSt3__122__make_exception_guardB8ue170006INS_29_AllocatorDestroyRangeReverseINS_9allocatorINS_6vectorIdNS2_IdEEEEEENS_16reverse_iteratorIPS5_EEEEEENS_28__exception_guard_exceptionsIT_EESC_, symObjAddr: 0xB8B8, symBinAddr: 0x10000F154, symSize: 0x4C }
  - { offsetInCU: 0x108F8, offset: 0x108F8, size: 0x8, addend: 0x0, symName: __ZNSt3__1neB8ue170006IPNS_6vectorIdNS_9allocatorIdEEEES5_EEbRKNS_16reverse_iteratorIT_EERKNS6_IT0_EE, symObjAddr: 0xB948, symBinAddr: 0x10000F1E4, symSize: 0x48 }
  - { offsetInCU: 0x10944, offset: 0x10944, size: 0x8, addend: 0x0, symName: __ZNSt3__112__to_addressB8ue170006INS_16reverse_iteratorIPNS_6vectorIdNS_9allocatorIdEEEEEEvEEu7__decayIDTclsr19__to_address_helperIT_EE6__callclsr3stdE7declvalIRKS8_EEEEESA_, symObjAddr: 0xB9C4, symBinAddr: 0x10000F260, symSize: 0x24 }
  - { offsetInCU: 0x109A3, offset: 0x109A3, size: 0x8, addend: 0x0, symName: __ZNSt3__119__allocator_destroyB8ue170006INS_9allocatorINS_6vectorIdNS1_IdEEEEEENS_16reverse_iteratorINS6_IPS4_EEEES9_EEvRT_T0_T1_, symObjAddr: 0xBD9C, symBinAddr: 0x10000F638, symSize: 0x70 }
  - { offsetInCU: 0x10A08, offset: 0x10A08, size: 0x8, addend: 0x0, symName: __ZNSt3__1neB8ue170006INS_16reverse_iteratorIPNS_6vectorIdNS_9allocatorIdEEEEEES7_EEbRKNS1_IT_EERKNS1_IT0_EE, symObjAddr: 0xBE48, symBinAddr: 0x10000F6E4, symSize: 0x60 }
  - { offsetInCU: 0x10A54, offset: 0x10A54, size: 0x8, addend: 0x0, symName: __ZNSt3__112__to_addressB8ue170006INS_16reverse_iteratorINS1_IPNS_6vectorIdNS_9allocatorIdEEEEEEEEvEEu7__decayIDTclsr19__to_address_helperIT_EE6__callclsr3stdE7declvalIRKS9_EEEEESB_, symObjAddr: 0xBED4, symBinAddr: 0x10000F770, symSize: 0x24 }
  - { offsetInCU: 0x10AB3, offset: 0x10AB3, size: 0x8, addend: 0x0, symName: __ZNSt3__18distanceB8ue170006IPdEENS_15iterator_traitsIT_E15difference_typeES3_S3_, symObjAddr: 0xC638, symBinAddr: 0x10000FED4, symSize: 0x2C }
  - { offsetInCU: 0x10AF6, offset: 0x10AF6, size: 0x8, addend: 0x0, symName: __ZNSt3__14nextB8ue170006IPdEENS_9enable_ifIXsr29__has_input_iterator_categoryIT_EE5valueES3_E4typeES3_NS_15iterator_traitsIS3_E15difference_typeE, symObjAddr: 0xC664, symBinAddr: 0x10000FF00, symSize: 0x34 }
  - { offsetInCU: 0x10B39, offset: 0x10B39, size: 0x8, addend: 0x0, symName: __ZNSt3__121__convert_to_integralB8ue170006El, symObjAddr: 0xC764, symBinAddr: 0x100010000, symSize: 0x14 }
  - { offsetInCU: 0x10B65, offset: 0x10B65, size: 0x8, addend: 0x0, symName: __ZNSt3__19__advanceB8ue170006IPdEEvRT_NS_15iterator_traitsIS2_E15difference_typeENS_26random_access_iterator_tagE, symObjAddr: 0xC778, symBinAddr: 0x100010014, symSize: 0x28 }
  - { offsetInCU: 0x10BAE, offset: 0x10BAE, size: 0x8, addend: 0x0, symName: __ZNSt3__110__distanceB8ue170006IPdEENS_15iterator_traitsIT_E15difference_typeES3_S3_NS_26random_access_iterator_tagE, symObjAddr: 0xC7E4, symBinAddr: 0x100010080, symSize: 0x28 }
  - { offsetInCU: 0x10C2E, offset: 0x10C2E, size: 0x8, addend: 0x0, symName: __ZNSt3__118__constexpr_strlenB8ue170006EPKc, symObjAddr: 0xD3C0, symBinAddr: 0x100010C5C, symSize: 0x24 }
  - { offsetInCU: 0x10C91, offset: 0x10C91, size: 0x8, addend: 0x0, symName: __ZNSt3__116forward_as_tupleB8ue170006IJNS_12basic_stringIcNS_11char_traitsIcEENS_9allocatorIcEEEEEEENS_5tupleIJDpOT_EEESA_, symObjAddr: 0xD4E4, symBinAddr: 0x100010D80, symSize: 0x2C }
  - { offsetInCU: 0x10CCA, offset: 0x10CCA, size: 0x8, addend: 0x0, symName: __ZNSt3__116forward_as_tupleB8ue170006IJEEENS_5tupleIJDpOT_EEES4_, symObjAddr: 0xD510, symBinAddr: 0x100010DAC, symSize: 0x4 }
  - { offsetInCU: 0x10CEE, offset: 0x10CEE, size: 0x8, addend: 0x0, symName: __ZNSt3__1ltB8ue170006IcNS_11char_traitsIcEENS_9allocatorIcEEEEbRKNS_12basic_stringIT_T0_T1_EESB_, symObjAddr: 0xDB1C, symBinAddr: 0x1000113B8, symSize: 0x38 }
  - { offsetInCU: 0x10D46, offset: 0x10D46, size: 0x8, addend: 0x0, symName: __ZNSt3__112__to_addressB8ue170006IKcEEPT_S3_, symObjAddr: 0xDEC8, symBinAddr: 0x100011764, symSize: 0x14 }
  - { offsetInCU: 0x10DD7, offset: 0x10DD7, size: 0x8, addend: 0x0, symName: __ZNSt3__13getB8ue170006ILm0EJONS_12basic_stringIcNS_11char_traitsIcEENS_9allocatorIcEEEEEEERNS_13tuple_elementIXT_ENS_5tupleIJDpT0_EEEE4typeERSC_, symObjAddr: 0xE434, symBinAddr: 0x100011CD0, symSize: 0x24 }
  - { offsetInCU: 0x10E1A, offset: 0x10E1A, size: 0x8, addend: 0x0, symName: __ZNSt3__127__tree_balance_after_insertB8ue170006IPNS_16__tree_node_baseIPvEEEEvT_S5_, symObjAddr: 0xE904, symBinAddr: 0x1000121A0, symSize: 0x32C }
  - { offsetInCU: 0x10E96, offset: 0x10E96, size: 0x8, addend: 0x0, symName: __ZNSt3__120__tree_is_left_childB8ue170006IPNS_16__tree_node_baseIPvEEEEbT_, symObjAddr: 0xEC70, symBinAddr: 0x10001250C, symSize: 0x2C }
  - { offsetInCU: 0x10ECB, offset: 0x10ECB, size: 0x8, addend: 0x0, symName: __ZNSt3__118__tree_left_rotateB8ue170006IPNS_16__tree_node_baseIPvEEEEvT_, symObjAddr: 0xEC9C, symBinAddr: 0x100012538, symSize: 0xD8 }
  - { offsetInCU: 0x10F0D, offset: 0x10F0D, size: 0x8, addend: 0x0, symName: __ZNSt3__119__tree_right_rotateB8ue170006IPNS_16__tree_node_baseIPvEEEEvT_, symObjAddr: 0xED74, symBinAddr: 0x100012610, symSize: 0xCC }
  - { offsetInCU: 0x10FA6, offset: 0x10FA6, size: 0x8, addend: 0x0, symName: __ZNSt3__130__uninitialized_allocator_copyB8ue170006INS_9allocatorIdEEPKdS4_PdEET2_RT_T0_T1_S6_, symObjAddr: 0xF37C, symBinAddr: 0x100012C18, symSize: 0x80 }
  - { offsetInCU: 0x11043, offset: 0x11043, size: 0x8, addend: 0x0, symName: __ZNSt3__114__unwrap_rangeB8ue170006IPKdS2_EENS_4pairIT0_S4_EET_S6_, symObjAddr: 0xF3FC, symBinAddr: 0x100012C98, symSize: 0x60 }
  - { offsetInCU: 0x1108F, offset: 0x1108F, size: 0x8, addend: 0x0, symName: __ZNSt3__135__uninitialized_allocator_copy_implB8ue170006INS_9allocatorIdEEKdddLPv0EEEPT2_RT_PT0_SA_S6_, symObjAddr: 0xF45C, symBinAddr: 0x100012CF8, symSize: 0x38 }
  - { offsetInCU: 0x11110, offset: 0x11110, size: 0x8, addend: 0x0, symName: __ZNSt3__19make_pairB8ue170006IPKdS2_EENS_4pairINS_18__unwrap_ref_decayIT_E4typeENS4_IT0_E4typeEEEOS5_OS8_, symObjAddr: 0xF494, symBinAddr: 0x100012D30, symSize: 0x38 }
  - { offsetInCU: 0x1115F, offset: 0x1115F, size: 0x8, addend: 0x0, symName: __ZNSt3__113__unwrap_iterB8ue170006IPKdNS_18__unwrap_iter_implIS2_Lb1EEELi0EEEDTclsrT0_8__unwrapclsr3stdE7declvalIT_EEEES6_, symObjAddr: 0xF4CC, symBinAddr: 0x100012D68, symSize: 0x24 }
  - { offsetInCU: 0x112CA, offset: 0x112CA, size: 0x8, addend: 0x0, symName: __ZNSt3__112__to_addressB8ue170006IKdEEPT_S3_, symObjAddr: 0xF584, symBinAddr: 0x100012E20, symSize: 0x14 }
  - { offsetInCU: 0x112FF, offset: 0x112FF, size: 0x8, addend: 0x0, symName: __ZNSt3__14copyB8ue170006IPKdPdEET0_T_S5_S4_, symObjAddr: 0xF598, symBinAddr: 0x100012E34, symSize: 0x40 }
  - { offsetInCU: 0x11359, offset: 0x11359, size: 0x8, addend: 0x0, symName: __ZNSt3__16__copyB8ue170006INS_17_ClassicAlgPolicyEPKdS3_PdEENS_4pairIT0_T2_EES6_T1_S7_, symObjAddr: 0xF5D8, symBinAddr: 0x100012E74, symSize: 0x44 }
  - { offsetInCU: 0x113C5, offset: 0x113C5, size: 0x8, addend: 0x0, symName: __ZNSt3__123__dispatch_copy_or_moveB8ue170006INS_17_ClassicAlgPolicyENS_11__copy_loopIS1_EENS_14__copy_trivialEPKdS6_PdEENS_4pairIT2_T4_EES9_T3_SA_, symObjAddr: 0xF61C, symBinAddr: 0x100012EB8, symSize: 0x44 }
  - { offsetInCU: 0x11443, offset: 0x11443, size: 0x8, addend: 0x0, symName: __ZNSt3__121__unwrap_and_dispatchB8ue170006INS_10__overloadINS_11__copy_loopINS_17_ClassicAlgPolicyEEENS_14__copy_trivialEEEPKdS8_PdLi0EEENS_4pairIT0_T2_EESB_T1_SC_, symObjAddr: 0xF660, symBinAddr: 0x100012EFC, symSize: 0xB4 }
  - { offsetInCU: 0x115D4, offset: 0x115D4, size: 0x8, addend: 0x0, symName: __ZNSt3__19make_pairB8ue170006IPKdPdEENS_4pairINS_18__unwrap_ref_decayIT_E4typeENS5_IT0_E4typeEEEOS6_OS9_, symObjAddr: 0xF75C, symBinAddr: 0x100012FF8, symSize: 0x38 }
  - { offsetInCU: 0x11623, offset: 0x11623, size: 0x8, addend: 0x0, symName: __ZNSt3__114__rewrap_rangeB8ue170006IPKdS2_EET_S3_T0_, symObjAddr: 0xF794, symBinAddr: 0x100013030, symSize: 0x2C }
  - { offsetInCU: 0x1166F, offset: 0x1166F, size: 0x8, addend: 0x0, symName: __ZNSt3__119__copy_trivial_implB8ue170006IKddEENS_4pairIPT_PT0_EES4_S4_S6_, symObjAddr: 0xF7C0, symBinAddr: 0x10001305C, symSize: 0x80 }
  - { offsetInCU: 0x116D7, offset: 0x116D7, size: 0x8, addend: 0x0, symName: __ZNSt3__119__constexpr_memmoveB8ue170006IdKdLi0EEEPT_S3_PT0_NS_15__element_countE, symObjAddr: 0xF840, symBinAddr: 0x1000130DC, symSize: 0x64 }
  - { offsetInCU: 0x11745, offset: 0x11745, size: 0x8, addend: 0x0, symName: __ZNSt3__19make_pairB8ue170006IRPKdPdEENS_4pairINS_18__unwrap_ref_decayIT_E4typeENS6_IT0_E4typeEEEOS7_OSA_, symObjAddr: 0xF8A4, symBinAddr: 0x100013140, symSize: 0x38 }
  - { offsetInCU: 0x11794, offset: 0x11794, size: 0x8, addend: 0x0, symName: __ZNSt3__113__rewrap_iterB8ue170006IPKdS2_NS_18__unwrap_iter_implIS2_Lb1EEEEET_S5_T0_, symObjAddr: 0xF9BC, symBinAddr: 0x100013258, symSize: 0x3C }
  - { offsetInCU: 0x1180D, offset: 0x1180D, size: 0x8, addend: 0x0, symName: __ZNSt3__111__tree_leafB8ue170006IPNS_16__tree_node_baseIPvEEEET_S5_, symObjAddr: 0x10628, symBinAddr: 0x100013EC4, symSize: 0x70 }
  - { offsetInCU: 0x11860, offset: 0x11860, size: 0x8, addend: 0x0, symName: __ZNSt3__116__pad_and_outputB8ue170006IcNS_11char_traitsIcEEEENS_19ostreambuf_iteratorIT_T0_EES6_PKS4_S8_S8_RNS_8ios_baseES4_, symObjAddr: 0x11318, symBinAddr: 0x100014BB4, symSize: 0x240 }
  - { offsetInCU: 0x1192F, offset: 0x1192F, size: 0x8, addend: 0x0, symName: __ZNSt3__19use_facetB8ue170006INS_5ctypeIcEEEERKT_RKNS_6localeE, symObjAddr: 0x11870, symBinAddr: 0x10001510C, symSize: 0x2C }
  - { offsetInCU: 0x11DFC, offset: 0x11DFC, size: 0x8, addend: 0x0, symName: __ZNSt3__1neB8ue170006ERKNS_15__tree_iteratorINS_12__value_typeINS_12basic_stringIcNS_11char_traitsIcEENS_9allocatorIcEEEENS_3mapIS7_NS_6vectorIdNS5_IdEEEENS_4lessIS7_EENS5_INS_4pairIKS7_SB_EEEEEEEEPNS_11__tree_nodeISJ_PvEElEESQ_, symObjAddr: 0x11E54, symBinAddr: 0x1000156F0, symSize: 0x34 }
  - { offsetInCU: 0x11E39, offset: 0x11E39, size: 0x8, addend: 0x0, symName: __ZNSt3__1eqB8ue170006ERKNS_15__tree_iteratorINS_12__value_typeINS_12basic_stringIcNS_11char_traitsIcEENS_9allocatorIcEEEENS_3mapIS7_NS_6vectorIdNS5_IdEEEENS_4lessIS7_EENS5_INS_4pairIKS7_SB_EEEEEEEEPNS_11__tree_nodeISJ_PvEElEESQ_, symObjAddr: 0x11F38, symBinAddr: 0x1000157D4, symSize: 0x30 }
  - { offsetInCU: 0x11E76, offset: 0x11E76, size: 0x8, addend: 0x0, symName: __ZNSt3__116forward_as_tupleB8ue170006IJRKNS_12basic_stringIcNS_11char_traitsIcEENS_9allocatorIcEEEEEEENS_5tupleIJDpOT_EEESC_, symObjAddr: 0x12088, symBinAddr: 0x100015924, symSize: 0x2C }
  - { offsetInCU: 0x11EAF, offset: 0x11EAF, size: 0x8, addend: 0x0, symName: __ZNSt3__13getB8ue170006ILm0EJRKNS_12basic_stringIcNS_11char_traitsIcEENS_9allocatorIcEEEEEEERNS_13tuple_elementIXT_ENS_5tupleIJDpT0_EEEE4typeERSD_, symObjAddr: 0x12324, symBinAddr: 0x100015BC0, symSize: 0x24 }
  - { offsetInCU: 0x12439, offset: 0x12439, size: 0x8, addend: 0x0, symName: __ZSt28__throw_bad_array_new_lengthB8ue170006v, symObjAddr: 0x8B68, symBinAddr: 0x10000C404, symSize: 0x34 }
  - { offsetInCU: 0x127D4, offset: 0x127D4, size: 0x8, addend: 0x0, symName: __ZNKSt3__16chrono15__duration_castINS0_8durationIxNS_5ratioILl1ELl1000000000EEEEENS2_IdNS3_ILl1ELl1EEEEES4_Lb1ELb0EEclB8ue170006ERKS5_, symObjAddr: 0x7C5C, symBinAddr: 0x10000B4F8, symSize: 0x50 }
  - { offsetInCU: 0x12A08, offset: 0x12A08, size: 0x8, addend: 0x0, symName: __ZNSt3__16vectorIdNS_9allocatorIdEEE26__swap_out_circular_bufferERNS_14__split_bufferIdRS2_EE, symObjAddr: 0x8210, symBinAddr: 0x10000BAAC, symSize: 0x110 }
  - { offsetInCU: 0x12BFB, offset: 0x12BFB, size: 0x8, addend: 0x0, symName: __ZNSt3__16vectorINS0_IdNS_9allocatorIdEEEENS1_IS3_EEE26__swap_out_circular_bufferERNS_14__split_bufferIS3_RS4_EE, symObjAddr: 0xA3E8, symBinAddr: 0x10000DC84, symSize: 0x110 }
  - { offsetInCU: 0x134B8, offset: 0x134B8, size: 0x8, addend: 0x0, symName: __Z3powB8ue170006IiiENSt3__19enable_ifIXaasr3std13is_arithmeticIT_EE5valuesr3std13is_arithmeticIT0_EE5valueENS0_9__promoteIS2_S3_vEEE4type4typeES2_S3_, symObjAddr: 0x5094, symBinAddr: 0x100008930, symSize: 0x44 }
  - { offsetInCU: 0x1354A, offset: 0x1354A, size: 0x8, addend: 0x0, symName: __Z3powB8ue170006IdiENSt3__19enable_ifIXaasr3std13is_arithmeticIT_EE5valuesr3std13is_arithmeticIT0_EE5valueENS0_9__promoteIS2_S3_vEEE4type4typeES2_S3_, symObjAddr: 0x50D8, symBinAddr: 0x100008974, symSize: 0x38 }
  - { offsetInCU: 0x15A12, offset: 0x15A12, size: 0x8, addend: 0x0, symName: __Z22variableInitialisationiiRNSt3__16vectorIdNS_9allocatorIdEEEES4_S4_S4_S4_S4_S4_S4_RNS0_IS3_NS1_IS3_EEEES7_S7_S7_S7_S7_S7_S4_S4_S4_, symObjAddr: 0x0, symBinAddr: 0x10000389C, symSize: 0x518 }
  - { offsetInCU: 0x15B54, offset: 0x15B54, size: 0x8, addend: 0x0, symName: __ZNSt3__16vectorIdNS_9allocatorIdEEE6resizeEmRKd, symObjAddr: 0x518, symBinAddr: 0x100003DB4, symSize: 0x9C }
  - { offsetInCU: 0x15BA9, offset: 0x15BA9, size: 0x8, addend: 0x0, symName: __ZNSt3__16vectorINS0_IdNS_9allocatorIdEEEENS1_IS3_EEE6resizeEmRKS3_, symObjAddr: 0x5B4, symBinAddr: 0x100003E50, symSize: 0xA4 }
  - { offsetInCU: 0x15BFE, offset: 0x15BFE, size: 0x8, addend: 0x0, symName: __ZNSt3__16vectorIdNS_9allocatorIdEEEC1EmRKd, symObjAddr: 0x658, symBinAddr: 0x100003EF4, symSize: 0x3C }
  - { offsetInCU: 0x15C48, offset: 0x15C48, size: 0x8, addend: 0x0, symName: __ZNSt3__16vectorIdNS_9allocatorIdEEED1B8ue170006Ev, symObjAddr: 0x694, symBinAddr: 0x100003F30, symSize: 0x2C }
  - { offsetInCU: 0x15C71, offset: 0x15C71, size: 0x8, addend: 0x0, symName: __Z8icRandomiddddRNSt3__16vectorIdNS_9allocatorIdEEEES4_S4_S4_S4_S4_S4_, symObjAddr: 0x6C0, symBinAddr: 0x100003F5C, symSize: 0x470 }
  - { offsetInCU: 0x15E83, offset: 0x15E83, size: 0x8, addend: 0x0, symName: __ZNSt3__16vectorIdNS_9allocatorIdEEEixB8ue170006Em, symObjAddr: 0xB30, symBinAddr: 0x1000043CC, symSize: 0x24 }
  - { offsetInCU: 0x15EBA, offset: 0x15EBA, size: 0x8, addend: 0x0, symName: __ZNSt3__16vectorIdNS_9allocatorIdEEEaSB8ue170006ERKS3_, symObjAddr: 0xB54, symBinAddr: 0x1000043F0, symSize: 0x68 }
  - { offsetInCU: 0x15EF0, offset: 0x15EF0, size: 0x8, addend: 0x0, symName: __Z12getTestCasesv, symObjAddr: 0xBBC, symBinAddr: 0x100004458, symSize: 0x320C }
  - { offsetInCU: 0x15F1F, offset: 0x15F1F, size: 0x8, addend: 0x0, symName: __ZNSt3__13mapINS_12basic_stringIcNS_11char_traitsIcEENS_9allocatorIcEEEENS0_IS6_NS_6vectorIdNS4_IdEEEENS_4lessIS6_EENS4_INS_4pairIKS6_S9_EEEEEESB_NS4_INSC_ISD_SG_EEEEEC1B8ue170006Ev, symObjAddr: 0x3DC8, symBinAddr: 0x100007664, symSize: 0x2C }
  - { offsetInCU: 0x15F4E, offset: 0x15F4E, size: 0x8, addend: 0x0, symName: __ZNSt3__112basic_stringIcNS_11char_traitsIcEENS_9allocatorIcEEEC1B8ue170006ILi0EEEPKc, symObjAddr: 0x3DF4, symBinAddr: 0x100007690, symSize: 0x34 }
  - { offsetInCU: 0x15F8D, offset: 0x15F8D, size: 0x8, addend: 0x0, symName: __ZNSt3__16vectorIdNS_9allocatorIdEEEC1B8ue170006ESt16initializer_listIdE, symObjAddr: 0x3E28, symBinAddr: 0x1000076C4, symSize: 0x3C }
  - { offsetInCU: 0x15FC8, offset: 0x15FC8, size: 0x8, addend: 0x0, symName: __ZNSt3__14pairIKNS_12basic_stringIcNS_11char_traitsIcEENS_9allocatorIcEEEENS_6vectorIdNS4_IdEEEEEC1B8ue170006ILb1ELPv0EEERS7_RKSA_, symObjAddr: 0x3E64, symBinAddr: 0x100007700, symSize: 0x3C }
  - { offsetInCU: 0x1601E, offset: 0x1601E, size: 0x8, addend: 0x0, symName: __ZNSt3__13mapINS_12basic_stringIcNS_11char_traitsIcEENS_9allocatorIcEEEENS0_IS6_NS_6vectorIdNS4_IdEEEENS_4lessIS6_EENS4_INS_4pairIKS6_S9_EEEEEESB_NS4_INSC_ISD_SG_EEEEEixEOS6_, symObjAddr: 0x3EA0, symBinAddr: 0x10000773C, symSize: 0x80 }
  - { offsetInCU: 0x16055, offset: 0x16055, size: 0x8, addend: 0x0, symName: __ZNSt3__13mapINS_12basic_stringIcNS_11char_traitsIcEENS_9allocatorIcEEEENS_6vectorIdNS4_IdEEEENS_4lessIS6_EENS4_INS_4pairIKS6_S9_EEEEEaSB8ue170006ESt16initializer_listISE_E, symObjAddr: 0x3F20, symBinAddr: 0x1000077BC, symSize: 0x60 }
  - { offsetInCU: 0x1608A, offset: 0x1608A, size: 0x8, addend: 0x0, symName: __ZNSt3__14pairIKNS_12basic_stringIcNS_11char_traitsIcEENS_9allocatorIcEEEENS_6vectorIdNS4_IdEEEEED1Ev, symObjAddr: 0x3F80, symBinAddr: 0x10000781C, symSize: 0x2C }
  - { offsetInCU: 0x160B6, offset: 0x160B6, size: 0x8, addend: 0x0, symName: __ZNSt3__13mapINS_12basic_stringIcNS_11char_traitsIcEENS_9allocatorIcEEEENS0_IS6_NS_6vectorIdNS4_IdEEEENS_4lessIS6_EENS4_INS_4pairIKS6_S9_EEEEEESB_NS4_INSC_ISD_SG_EEEEED1B8ue170006Ev, symObjAddr: 0x3FAC, symBinAddr: 0x100007848, symSize: 0x2C }
  - { offsetInCU: 0x160DF, offset: 0x160DF, size: 0x8, addend: 0x0, symName: __Z10updateVarsdiddddRNSt3__16vectorIdNS_9allocatorIdEEEEdbdPA2_KiS7_S4_S4_S4_S4_S4_S4_S4_S4_RNS0_IS3_NS1_IS3_EEEESA_SA_SA_SA_SA_SA_S4_S4_S4_, symObjAddr: 0x3FD8, symBinAddr: 0x100007874, symSize: 0x1090 }
  - { offsetInCU: 0x1645A, offset: 0x1645A, size: 0x8, addend: 0x0, symName: __ZNSt3__16vectorINS0_IdNS_9allocatorIdEEEENS1_IS3_EEEixB8ue170006Em, symObjAddr: 0x5068, symBinAddr: 0x100008904, symSize: 0x2C }
  - { offsetInCU: 0x16490, offset: 0x16490, size: 0x8, addend: 0x0, symName: __Z3absB8ue170006d, symObjAddr: 0x5110, symBinAddr: 0x1000089AC, symSize: 0x18 }
  - { offsetInCU: 0x164BC, offset: 0x164BC, size: 0x8, addend: 0x0, symName: __Z12writeToFilesiiRKNSt3__16vectorIdNS_9allocatorIdEEEES5_S5_S5_S5_S5_S5_S5_, symObjAddr: 0x5128, symBinAddr: 0x1000089C4, symSize: 0x718 }
  - { offsetInCU: 0x166E1, offset: 0x166E1, size: 0x8, addend: 0x0, symName: __ZNSt3__114basic_ofstreamIcNS_11char_traitsIcEEEC1EPKcj, symObjAddr: 0x5840, symBinAddr: 0x1000090DC, symSize: 0x16C }
  - { offsetInCU: 0x1672B, offset: 0x1672B, size: 0x8, addend: 0x0, symName: __ZNKSt3__16vectorIdNS_9allocatorIdEEEixB8ue170006Em, symObjAddr: 0x59F4, symBinAddr: 0x100009290, symSize: 0x24 }
  - { offsetInCU: 0x16762, offset: 0x16762, size: 0x8, addend: 0x0, symName: __ZNSt3__114basic_ofstreamIcNS_11char_traitsIcEEE5closeEv, symObjAddr: 0x5A18, symBinAddr: 0x1000092B4, symSize: 0x58 }
  - { offsetInCU: 0x1678A, offset: 0x1678A, size: 0x8, addend: 0x0, symName: __ZNSt3__113basic_ostreamIcNS_11char_traitsIcEEElsB8ue170006EPFRNS_8ios_baseES5_E, symObjAddr: 0x5A70, symBinAddr: 0x10000930C, symSize: 0x40 }
  - { offsetInCU: 0x167C3, offset: 0x167C3, size: 0x8, addend: 0x0, symName: __ZNSt3__114basic_ofstreamIcNS_11char_traitsIcEEED1Ev, symObjAddr: 0x5B78, symBinAddr: 0x100009414, symSize: 0x40 }
  - { offsetInCU: 0x167F0, offset: 0x167F0, size: 0x8, addend: 0x0, symName: _main, symObjAddr: 0x5BB8, symBinAddr: 0x100009454, symSize: 0x1824 }
  - { offsetInCU: 0x16C80, offset: 0x16C80, size: 0x8, addend: 0x0, symName: __ZNSt3__114basic_ifstreamIcNS_11char_traitsIcEEEC1EPKcj, symObjAddr: 0x73DC, symBinAddr: 0x10000AC78, symSize: 0x16C }
  - { offsetInCU: 0x16CCA, offset: 0x16CCA, size: 0x8, addend: 0x0, symName: __ZNKSt3__19basic_iosIcNS_11char_traitsIcEEEcvbB8ue170006Ev, symObjAddr: 0x7548, symBinAddr: 0x10000ADE4, symSize: 0x2C }
  - { offsetInCU: 0x16CF0, offset: 0x16CF0, size: 0x8, addend: 0x0, symName: __ZNSt3__114basic_ifstreamIcNS_11char_traitsIcEEE5closeEv, symObjAddr: 0x7574, symBinAddr: 0x10000AE10, symSize: 0x58 }
  - { offsetInCU: 0x16D18, offset: 0x16D18, size: 0x8, addend: 0x0, symName: __ZNSt3__16vectorINS0_IdNS_9allocatorIdEEEENS1_IS3_EEEC1B8ue170006Ev, symObjAddr: 0x75CC, symBinAddr: 0x10000AE68, symSize: 0x2C }
  - { offsetInCU: 0x16D42, offset: 0x16D42, size: 0x8, addend: 0x0, symName: __ZNSt3__16vectorIdNS_9allocatorIdEEEC1B8ue170006Ev, symObjAddr: 0x75F8, symBinAddr: 0x10000AE94, symSize: 0x2C }
  - { offsetInCU: 0x16D6C, offset: 0x16D6C, size: 0x8, addend: 0x0, symName: __ZNSt3__13mapINS_12basic_stringIcNS_11char_traitsIcEENS_9allocatorIcEEEENS0_IS6_NS_6vectorIdNS4_IdEEEENS_4lessIS6_EENS4_INS_4pairIKS6_S9_EEEEEESB_NS4_INSC_ISD_SG_EEEEE4findB8ue170006ERSD_, symObjAddr: 0x7700, symBinAddr: 0x10000AF9C, symSize: 0x40 }
  - { offsetInCU: 0x16DA1, offset: 0x16DA1, size: 0x8, addend: 0x0, symName: __ZNSt3__13mapINS_12basic_stringIcNS_11char_traitsIcEENS_9allocatorIcEEEENS0_IS6_NS_6vectorIdNS4_IdEEEENS_4lessIS6_EENS4_INS_4pairIKS6_S9_EEEEEESB_NS4_INSC_ISD_SG_EEEEE3endB8ue170006Ev, symObjAddr: 0x7740, symBinAddr: 0x10000AFDC, symSize: 0x38 }
  - { offsetInCU: 0x16DC7, offset: 0x16DC7, size: 0x8, addend: 0x0, symName: __ZNSt3__13mapINS_12basic_stringIcNS_11char_traitsIcEENS_9allocatorIcEEEENS0_IS6_NS_6vectorIdNS4_IdEEEENS_4lessIS6_EENS4_INS_4pairIKS6_S9_EEEEEESB_NS4_INSC_ISD_SG_EEEEEixERSD_, symObjAddr: 0x7778, symBinAddr: 0x10000B014, symSize: 0x80 }
  - { offsetInCU: 0x16DFE, offset: 0x16DFE, size: 0x8, addend: 0x0, symName: __ZNSt3__13mapINS_12basic_stringIcNS_11char_traitsIcEENS_9allocatorIcEEEENS_6vectorIdNS4_IdEEEENS_4lessIS6_EENS4_INS_4pairIKS6_S9_EEEEEixEOS6_, symObjAddr: 0x77F8, symBinAddr: 0x10000B094, symSize: 0x80 }
  - { offsetInCU: 0x16E35, offset: 0x16E35, size: 0x8, addend: 0x0, symName: __ZNSt3__113basic_ostreamIcNS_11char_traitsIcEEElsB8ue170006EPFRS3_S4_E, symObjAddr: 0x7878, symBinAddr: 0x10000B114, symSize: 0x2C }
  - { offsetInCU: 0x16E69, offset: 0x16E69, size: 0x8, addend: 0x0, symName: __ZNSt3__16vectorIdNS_9allocatorIdEEEC1Em, symObjAddr: 0x78FC, symBinAddr: 0x10000B198, symSize: 0x34 }
  - { offsetInCU: 0x16EA9, offset: 0x16EA9, size: 0x8, addend: 0x0, symName: __ZNSt3__16chrono8durationIdNS_5ratioILl1ELl1EEEEC1B8ue170006IxNS2_ILl1ELl1000000000EEEEERKNS1_IT_T0_EEPNS_9enable_ifIXaasr13__no_overflowIS8_S3_EE5valueooL_ZNS_17integral_constantIbLb1EE5valueEEaaeqsr13__no_overflowIS8_S3_E4typeE3denLi1Entsr23treat_as_floating_pointIS7_EE5valueEvE4typeE, symObjAddr: 0x7988, symBinAddr: 0x10000B224, symSize: 0x3C }
  - { offsetInCU: 0x16EFF, offset: 0x16EFF, size: 0x8, addend: 0x0, symName: __ZNKSt3__16chrono8durationIdNS_5ratioILl1ELl1EEEE5countB8ue170006Ev, symObjAddr: 0x79C4, symBinAddr: 0x10000B260, symSize: 0x18 }
  - { offsetInCU: 0x16F25, offset: 0x16F25, size: 0x8, addend: 0x0, symName: __ZNSt3__16vectorINS0_IdNS_9allocatorIdEEEENS1_IS3_EEED1B8ue170006Ev, symObjAddr: 0x79DC, symBinAddr: 0x10000B278, symSize: 0x2C }
  - { offsetInCU: 0x16F54, offset: 0x16F54, size: 0x8, addend: 0x0, symName: __ZNSt3__114basic_ifstreamIcNS_11char_traitsIcEEED1Ev, symObjAddr: 0x7A08, symBinAddr: 0x10000B2A4, symSize: 0x40 }
  - { offsetInCU: 0x16F81, offset: 0x16F81, size: 0x8, addend: 0x0, symName: __ZNSt3__14pairIKNS_12basic_stringIcNS_11char_traitsIcEENS_9allocatorIcEEEENS_6vectorIdNS4_IdEEEEED2Ev, symObjAddr: 0x7A48, symBinAddr: 0x10000B2E4, symSize: 0x38 }
  - { offsetInCU: 0x16FAD, offset: 0x16FAD, size: 0x8, addend: 0x0, symName: __ZNSt3__18ios_base6unsetfB8ue170006Ej, symObjAddr: 0x7A80, symBinAddr: 0x10000B31C, symSize: 0x28 }
  - { offsetInCU: 0x16FE4, offset: 0x16FE4, size: 0x8, addend: 0x0, symName: __ZNSt3__18ios_base4setfB8ue170006Ejj, symObjAddr: 0x7AA8, symBinAddr: 0x10000B344, symSize: 0x5C }
  - { offsetInCU: 0x17039, offset: 0x17039, size: 0x8, addend: 0x0, symName: __ZNSt3__18__iom_t5C1B8ue170006Ei, symObjAddr: 0x7B04, symBinAddr: 0x10000B3A0, symSize: 0x34 }
  - { offsetInCU: 0x17071, offset: 0x17071, size: 0x8, addend: 0x0, symName: __ZNSt3__18__iom_t5C2B8ue170006Ei, symObjAddr: 0x7B38, symBinAddr: 0x10000B3D4, symSize: 0x20 }
  - { offsetInCU: 0x170A9, offset: 0x170A9, size: 0x8, addend: 0x0, symName: __ZNSt3__114basic_ofstreamIcNS_11char_traitsIcEEED2Ev, symObjAddr: 0x7B58, symBinAddr: 0x10000B3F4, symSize: 0x64 }
  - { offsetInCU: 0x170E3, offset: 0x170E3, size: 0x8, addend: 0x0, symName: __ZTv0_n24_NSt3__114basic_ofstreamIcNS_11char_traitsIcEEED1Ev, symObjAddr: 0x7BBC, symBinAddr: 0x10000B458, symSize: 0x28 }
  - { offsetInCU: 0x170FA, offset: 0x170FA, size: 0x8, addend: 0x0, symName: __ZNSt3__16chrono8durationIdNS_5ratioILl1ELl1EEEEC2B8ue170006IxNS2_ILl1ELl1000000000EEEEERKNS1_IT_T0_EEPNS_9enable_ifIXaasr13__no_overflowIS8_S3_EE5valueooL_ZNS_17integral_constantIbLb1EE5valueEEaaeqsr13__no_overflowIS8_S3_E4typeE3denLi1Entsr23treat_as_floating_pointIS7_EE5valueEvE4typeE, symObjAddr: 0x7BE4, symBinAddr: 0x10000B480, symSize: 0x48 }
  - { offsetInCU: 0x17150, offset: 0x17150, size: 0x8, addend: 0x0, symName: __ZNKSt3__16chrono8durationIxNS_5ratioILl1ELl1000000000EEEE5countB8ue170006Ev, symObjAddr: 0x7CAC, symBinAddr: 0x10000B548, symSize: 0x18 }
  - { offsetInCU: 0x17176, offset: 0x17176, size: 0x8, addend: 0x0, symName: __ZNSt3__16chrono8durationIdNS_5ratioILl1ELl1EEEEC1B8ue170006IdEERKT_PNS_9enable_ifIXaasr14is_convertibleIS8_dEE5valueooL_ZNS_17integral_constantIbLb1EE5valueEEntsr23treat_as_floating_pointIS6_EE5valueEvE4typeE, symObjAddr: 0x7CC4, symBinAddr: 0x10000B560, symSize: 0x3C }
  - { offsetInCU: 0x171C2, offset: 0x171C2, size: 0x8, addend: 0x0, symName: __ZNSt3__16chrono8durationIdNS_5ratioILl1ELl1EEEEC2B8ue170006IdEERKT_PNS_9enable_ifIXaasr14is_convertibleIS8_dEE5valueooL_ZNS_17integral_constantIbLb1EE5valueEEntsr23treat_as_floating_pointIS6_EE5valueEvE4typeE, symObjAddr: 0x7D00, symBinAddr: 0x10000B59C, symSize: 0x28 }
  - { offsetInCU: 0x1720E, offset: 0x1720E, size: 0x8, addend: 0x0, symName: __ZNSt3__114basic_ifstreamIcNS_11char_traitsIcEEED2Ev, symObjAddr: 0x7D28, symBinAddr: 0x10000B5C4, symSize: 0x64 }
  - { offsetInCU: 0x17248, offset: 0x17248, size: 0x8, addend: 0x0, symName: __ZTv0_n24_NSt3__114basic_ifstreamIcNS_11char_traitsIcEEED1Ev, symObjAddr: 0x7D8C, symBinAddr: 0x10000B628, symSize: 0x28 }
  - { offsetInCU: 0x1725F, offset: 0x1725F, size: 0x8, addend: 0x0, symName: __ZNKSt3__16vectorIdNS_9allocatorIdEEE4sizeB8ue170006Ev, symObjAddr: 0x7DB4, symBinAddr: 0x10000B650, symSize: 0x28 }
  - { offsetInCU: 0x17285, offset: 0x17285, size: 0x8, addend: 0x0, symName: __ZNSt3__16vectorIdNS_9allocatorIdEEE8__appendEmRKd, symObjAddr: 0x7DDC, symBinAddr: 0x10000B678, symSize: 0x114 }
  - { offsetInCU: 0x172EF, offset: 0x172EF, size: 0x8, addend: 0x0, symName: __ZNSt3__16vectorIdNS_9allocatorIdEEE17__destruct_at_endB8ue170006EPd, symObjAddr: 0x7EF0, symBinAddr: 0x10000B78C, symSize: 0x4C }
  - { offsetInCU: 0x17333, offset: 0x17333, size: 0x8, addend: 0x0, symName: __ZNSt3__16vectorIdNS_9allocatorIdEEE9__end_capB8ue170006Ev, symObjAddr: 0x7F3C, symBinAddr: 0x10000B7D8, symSize: 0x28 }
  - { offsetInCU: 0x17359, offset: 0x17359, size: 0x8, addend: 0x0, symName: __ZNSt3__16vectorIdNS_9allocatorIdEEE18__construct_at_endEmRKd, symObjAddr: 0x7F64, symBinAddr: 0x10000B800, symSize: 0xD0 }
  - { offsetInCU: 0x173DA, offset: 0x173DA, size: 0x8, addend: 0x0, symName: __ZNSt3__16vectorIdNS_9allocatorIdEEE7__allocB8ue170006Ev, symObjAddr: 0x8034, symBinAddr: 0x10000B8D0, symSize: 0x28 }
  - { offsetInCU: 0x17400, offset: 0x17400, size: 0x8, addend: 0x0, symName: __ZNKSt3__16vectorIdNS_9allocatorIdEEE11__recommendB8ue170006Em, symObjAddr: 0x805C, symBinAddr: 0x10000B8F8, symSize: 0xB4 }
  - { offsetInCU: 0x17455, offset: 0x17455, size: 0x8, addend: 0x0, symName: __ZNSt3__114__split_bufferIdRNS_9allocatorIdEEEC1EmmS3_, symObjAddr: 0x8110, symBinAddr: 0x10000B9AC, symSize: 0x44 }
  - { offsetInCU: 0x174AB, offset: 0x174AB, size: 0x8, addend: 0x0, symName: __ZNSt3__114__split_bufferIdRNS_9allocatorIdEEE18__construct_at_endEmRKd, symObjAddr: 0x8154, symBinAddr: 0x10000B9F0, symSize: 0xBC }
  - { offsetInCU: 0x174FE, offset: 0x174FE, size: 0x8, addend: 0x0, symName: __ZNSt3__114__split_bufferIdRNS_9allocatorIdEEED1Ev, symObjAddr: 0x8320, symBinAddr: 0x10000BBBC, symSize: 0x2C }
  - { offsetInCU: 0x1752A, offset: 0x1752A, size: 0x8, addend: 0x0, symName: __ZNSt3__117__compressed_pairIPdNS_9allocatorIdEEE5firstB8ue170006Ev, symObjAddr: 0x834C, symBinAddr: 0x10000BBE8, symSize: 0x24 }
  - { offsetInCU: 0x17550, offset: 0x17550, size: 0x8, addend: 0x0, symName: __ZNSt3__122__compressed_pair_elemIPdLi0ELb0EE5__getB8ue170006Ev, symObjAddr: 0x8370, symBinAddr: 0x10000BC0C, symSize: 0x14 }
  - { offsetInCU: 0x17591, offset: 0x17591, size: 0x8, addend: 0x0, symName: __ZNSt3__16vectorIdNS_9allocatorIdEEE21_ConstructTransactionC1B8ue170006ERS3_m, symObjAddr: 0x8384, symBinAddr: 0x10000BC20, symSize: 0x3C }
  - { offsetInCU: 0x175D9, offset: 0x175D9, size: 0x8, addend: 0x0, symName: __ZNSt3__116allocator_traitsINS_9allocatorIdEEE9constructB8ue170006IdJRKdEvEEvRS2_PT_DpOT0_, symObjAddr: 0x83C0, symBinAddr: 0x10000BC5C, symSize: 0x34 }
  - { offsetInCU: 0x17630, offset: 0x17630, size: 0x8, addend: 0x0, symName: __ZNSt3__16vectorIdNS_9allocatorIdEEE21_ConstructTransactionD1B8ue170006Ev, symObjAddr: 0x8408, symBinAddr: 0x10000BCA4, symSize: 0x2C }
  - { offsetInCU: 0x1765A, offset: 0x1765A, size: 0x8, addend: 0x0, symName: __ZNSt3__16vectorIdNS_9allocatorIdEEE21_ConstructTransactionC2B8ue170006ERS3_m, symObjAddr: 0x8434, symBinAddr: 0x10000BCD0, symSize: 0x44 }
  - { offsetInCU: 0x176A2, offset: 0x176A2, size: 0x8, addend: 0x0, symName: __ZNSt3__19allocatorIdE9constructB8ue170006IdJRKdEEEvPT_DpOT0_, symObjAddr: 0x8478, symBinAddr: 0x10000BD14, symSize: 0x28 }
  - { offsetInCU: 0x176F8, offset: 0x176F8, size: 0x8, addend: 0x0, symName: __ZNSt3__16vectorIdNS_9allocatorIdEEE21_ConstructTransactionD2B8ue170006Ev, symObjAddr: 0x84A0, symBinAddr: 0x10000BD3C, symSize: 0x20 }
  - { offsetInCU: 0x17722, offset: 0x17722, size: 0x8, addend: 0x0, symName: __ZNSt3__117__compressed_pairIPdNS_9allocatorIdEEE6secondB8ue170006Ev, symObjAddr: 0x84C0, symBinAddr: 0x10000BD5C, symSize: 0x24 }
  - { offsetInCU: 0x17748, offset: 0x17748, size: 0x8, addend: 0x0, symName: __ZNSt3__122__compressed_pair_elemINS_9allocatorIdEELi1ELb1EE5__getB8ue170006Ev, symObjAddr: 0x84E4, symBinAddr: 0x10000BD80, symSize: 0x14 }
  - { offsetInCU: 0x1776E, offset: 0x1776E, size: 0x8, addend: 0x0, symName: __ZNKSt3__16vectorIdNS_9allocatorIdEEE8max_sizeEv, symObjAddr: 0x84F8, symBinAddr: 0x10000BD94, symSize: 0x60 }
  - { offsetInCU: 0x17796, offset: 0x17796, size: 0x8, addend: 0x0, symName: __ZNKSt3__16vectorIdNS_9allocatorIdEEE20__throw_length_errorB8ue170006Ev, symObjAddr: 0x8558, symBinAddr: 0x10000BDF4, symSize: 0x1C }
  - { offsetInCU: 0x177BC, offset: 0x177BC, size: 0x8, addend: 0x0, symName: __ZNKSt3__16vectorIdNS_9allocatorIdEEE8capacityB8ue170006Ev, symObjAddr: 0x8574, symBinAddr: 0x10000BE10, symSize: 0x40 }
  - { offsetInCU: 0x177ED, offset: 0x177ED, size: 0x8, addend: 0x0, symName: __ZNSt3__116allocator_traitsINS_9allocatorIdEEE8max_sizeB8ue170006IS2_vEEmRKS2_, symObjAddr: 0x860C, symBinAddr: 0x10000BEA8, symSize: 0x24 }
  - { offsetInCU: 0x1781B, offset: 0x1781B, size: 0x8, addend: 0x0, symName: __ZNKSt3__16vectorIdNS_9allocatorIdEEE7__allocB8ue170006Ev, symObjAddr: 0x8630, symBinAddr: 0x10000BECC, symSize: 0x28 }
  - { offsetInCU: 0x17841, offset: 0x17841, size: 0x8, addend: 0x0, symName: __ZNSt3__114numeric_limitsIlE3maxB8ue170006Ev, symObjAddr: 0x8658, symBinAddr: 0x10000BEF4, symSize: 0x14 }
  - { offsetInCU: 0x1785F, offset: 0x1785F, size: 0x8, addend: 0x0, symName: __ZNKSt3__16__lessIvvEclB8ue170006ImmEEbRKT_RKT0_, symObjAddr: 0x86CC, symBinAddr: 0x10000BF68, symSize: 0x34 }
  - { offsetInCU: 0x178B3, offset: 0x178B3, size: 0x8, addend: 0x0, symName: __ZNKSt3__19allocatorIdE8max_sizeB8ue170006Ev, symObjAddr: 0x8700, symBinAddr: 0x10000BF9C, symSize: 0x14 }
  - { offsetInCU: 0x178D9, offset: 0x178D9, size: 0x8, addend: 0x0, symName: __ZNKSt3__117__compressed_pairIPdNS_9allocatorIdEEE6secondB8ue170006Ev, symObjAddr: 0x8714, symBinAddr: 0x10000BFB0, symSize: 0x24 }
  - { offsetInCU: 0x178FF, offset: 0x178FF, size: 0x8, addend: 0x0, symName: __ZNKSt3__122__compressed_pair_elemINS_9allocatorIdEELi1ELb1EE5__getB8ue170006Ev, symObjAddr: 0x8738, symBinAddr: 0x10000BFD4, symSize: 0x14 }
  - { offsetInCU: 0x17925, offset: 0x17925, size: 0x8, addend: 0x0, symName: __ZNSt3__123__libcpp_numeric_limitsIlLb1EE3maxB8ue170006Ev, symObjAddr: 0x874C, symBinAddr: 0x10000BFE8, symSize: 0x8 }
  - { offsetInCU: 0x17939, offset: 0x17939, size: 0x8, addend: 0x0, symName: __ZNSt12length_errorC1B8ue170006EPKc, symObjAddr: 0x87B8, symBinAddr: 0x10000C054, symSize: 0x34 }
  - { offsetInCU: 0x17971, offset: 0x17971, size: 0x8, addend: 0x0, symName: __ZNSt12length_errorC2B8ue170006EPKc, symObjAddr: 0x87EC, symBinAddr: 0x10000C088, symSize: 0x4C }
  - { offsetInCU: 0x179A9, offset: 0x179A9, size: 0x8, addend: 0x0, symName: __ZNKSt3__16vectorIdNS_9allocatorIdEEE9__end_capB8ue170006Ev, symObjAddr: 0x8838, symBinAddr: 0x10000C0D4, symSize: 0x28 }
  - { offsetInCU: 0x179CF, offset: 0x179CF, size: 0x8, addend: 0x0, symName: __ZNKSt3__117__compressed_pairIPdNS_9allocatorIdEEE5firstB8ue170006Ev, symObjAddr: 0x8860, symBinAddr: 0x10000C0FC, symSize: 0x24 }
  - { offsetInCU: 0x179F5, offset: 0x179F5, size: 0x8, addend: 0x0, symName: __ZNKSt3__122__compressed_pair_elemIPdLi0ELb0EE5__getB8ue170006Ev, symObjAddr: 0x8884, symBinAddr: 0x10000C120, symSize: 0x14 }
  - { offsetInCU: 0x17A1B, offset: 0x17A1B, size: 0x8, addend: 0x0, symName: __ZNSt3__114__split_bufferIdRNS_9allocatorIdEEEC2EmmS3_, symObjAddr: 0x88EC, symBinAddr: 0x10000C188, symSize: 0xD4 }
  - { offsetInCU: 0x17A94, offset: 0x17A94, size: 0x8, addend: 0x0, symName: __ZNSt3__117__compressed_pairIPdRNS_9allocatorIdEEEC1B8ue170006IDnS4_EEOT_OT0_, symObjAddr: 0x89C0, symBinAddr: 0x10000C25C, symSize: 0x3C }
  - { offsetInCU: 0x17AEC, offset: 0x17AEC, size: 0x8, addend: 0x0, symName: __ZNSt3__114__split_bufferIdRNS_9allocatorIdEEE7__allocB8ue170006Ev, symObjAddr: 0x8A3C, symBinAddr: 0x10000C2D8, symSize: 0x28 }
  - { offsetInCU: 0x17B12, offset: 0x17B12, size: 0x8, addend: 0x0, symName: __ZNSt3__114__split_bufferIdRNS_9allocatorIdEEE9__end_capB8ue170006Ev, symObjAddr: 0x8A64, symBinAddr: 0x10000C300, symSize: 0x28 }
  - { offsetInCU: 0x17B38, offset: 0x17B38, size: 0x8, addend: 0x0, symName: __ZNSt3__117__compressed_pairIPdRNS_9allocatorIdEEEC2B8ue170006IDnS4_EEOT_OT0_, symObjAddr: 0x8A8C, symBinAddr: 0x10000C328, symSize: 0x48 }
  - { offsetInCU: 0x17B90, offset: 0x17B90, size: 0x8, addend: 0x0, symName: __ZNSt3__122__compressed_pair_elemIPdLi0ELb0EEC2B8ue170006IDnvEEOT_, symObjAddr: 0x8AD4, symBinAddr: 0x10000C370, symSize: 0x1C }
  - { offsetInCU: 0x17BD2, offset: 0x17BD2, size: 0x8, addend: 0x0, symName: __ZNSt3__122__compressed_pair_elemIRNS_9allocatorIdEELi1ELb0EEC2B8ue170006IS3_vEEOT_, symObjAddr: 0x8AF0, symBinAddr: 0x10000C38C, symSize: 0x20 }
  - { offsetInCU: 0x17C14, offset: 0x17C14, size: 0x8, addend: 0x0, symName: __ZNSt3__19allocatorIdE8allocateB8ue170006Em, symObjAddr: 0x8B10, symBinAddr: 0x10000C3AC, symSize: 0x58 }
  - { offsetInCU: 0x17C48, offset: 0x17C48, size: 0x8, addend: 0x0, symName: __ZNSt3__117__compressed_pairIPdRNS_9allocatorIdEEE6secondB8ue170006Ev, symObjAddr: 0x8BE8, symBinAddr: 0x10000C484, symSize: 0x28 }
  - { offsetInCU: 0x17C6E, offset: 0x17C6E, size: 0x8, addend: 0x0, symName: __ZNSt3__122__compressed_pair_elemIRNS_9allocatorIdEELi1ELb0EE5__getB8ue170006Ev, symObjAddr: 0x8C10, symBinAddr: 0x10000C4AC, symSize: 0x18 }
  - { offsetInCU: 0x17C94, offset: 0x17C94, size: 0x8, addend: 0x0, symName: __ZNSt3__117__compressed_pairIPdRNS_9allocatorIdEEE5firstB8ue170006Ev, symObjAddr: 0x8C28, symBinAddr: 0x10000C4C4, symSize: 0x24 }
  - { offsetInCU: 0x17CC4, offset: 0x17CC4, size: 0x8, addend: 0x0, symName: __ZNSt3__114__split_bufferIdRNS_9allocatorIdEEE21_ConstructTransactionC1B8ue170006EPPdm, symObjAddr: 0x8C4C, symBinAddr: 0x10000C4E8, symSize: 0x3C }
  - { offsetInCU: 0x17D0A, offset: 0x17D0A, size: 0x8, addend: 0x0, symName: __ZNSt3__114__split_bufferIdRNS_9allocatorIdEEE21_ConstructTransactionD1B8ue170006Ev, symObjAddr: 0x8C88, symBinAddr: 0x10000C524, symSize: 0x2C }
  - { offsetInCU: 0x17D34, offset: 0x17D34, size: 0x8, addend: 0x0, symName: __ZNSt3__114__split_bufferIdRNS_9allocatorIdEEE21_ConstructTransactionC2B8ue170006EPPdm, symObjAddr: 0x8CB4, symBinAddr: 0x10000C550, symSize: 0x44 }
  - { offsetInCU: 0x17D7A, offset: 0x17D7A, size: 0x8, addend: 0x0, symName: __ZNSt3__114__split_bufferIdRNS_9allocatorIdEEE21_ConstructTransactionD2B8ue170006Ev, symObjAddr: 0x8CF8, symBinAddr: 0x10000C594, symSize: 0x20 }
  - { offsetInCU: 0x17DA4, offset: 0x17DA4, size: 0x8, addend: 0x0, symName: __ZNKSt3__16vectorIdNS_9allocatorIdEEE17__annotate_deleteB8ue170006Ev, symObjAddr: 0x8D18, symBinAddr: 0x10000C5B4, symSize: 0xB8 }
  - { offsetInCU: 0x17DCA, offset: 0x17DCA, size: 0x8, addend: 0x0, symName: __ZNSt3__116reverse_iteratorIPdEC1B8ue170006ES1_, symObjAddr: 0x8E48, symBinAddr: 0x10000C6E4, symSize: 0x34 }
  - { offsetInCU: 0x17E02, offset: 0x17E02, size: 0x8, addend: 0x0, symName: __ZNKSt3__116reverse_iteratorIPdE4baseB8ue170006Ev, symObjAddr: 0x8E7C, symBinAddr: 0x10000C718, symSize: 0x18 }
  - { offsetInCU: 0x17E28, offset: 0x17E28, size: 0x8, addend: 0x0, symName: __ZNKSt3__16vectorIdNS_9allocatorIdEEE14__annotate_newB8ue170006Em, symObjAddr: 0x8ED0, symBinAddr: 0x10000C76C, symSize: 0xAC }
  - { offsetInCU: 0x17E5D, offset: 0x17E5D, size: 0x8, addend: 0x0, symName: __ZNKSt3__16vectorIdNS_9allocatorIdEEE31__annotate_contiguous_containerB8ue170006EPKvS5_S5_S5_, symObjAddr: 0x8F7C, symBinAddr: 0x10000C818, symSize: 0x20 }
  - { offsetInCU: 0x17EAF, offset: 0x17EAF, size: 0x8, addend: 0x0, symName: __ZNKSt3__16vectorIdNS_9allocatorIdEEE4dataB8ue170006Ev, symObjAddr: 0x8F9C, symBinAddr: 0x10000C838, symSize: 0x28 }
  - { offsetInCU: 0x17EFB, offset: 0x17EFB, size: 0x8, addend: 0x0, symName: __ZNKSt3__111__move_loopINS_17_ClassicAlgPolicyEEclB8ue170006INS_16reverse_iteratorIPdEES6_S6_EENS_4pairIT_T1_EES8_T0_S9_, symObjAddr: 0x92B4, symBinAddr: 0x10000CB50, symSize: 0xA0 }
  - { offsetInCU: 0x17F6C, offset: 0x17F6C, size: 0x8, addend: 0x0, symName: __ZNSt3__18_IterOpsINS_17_ClassicAlgPolicyEE11__iter_moveB8ue170006IRNS_16reverse_iteratorIPdEEEENS_9enable_ifIXsr12is_referenceIDTdeclsr3stdE7declvalIRT_EEEEE5valueEDTclsr3stdE4movedeclsr3stdE7declvalISA_EEEEE4typeEOS9_, symObjAddr: 0x94E8, symBinAddr: 0x10000CD84, symSize: 0x28 }
  - { offsetInCU: 0x17F98, offset: 0x17F98, size: 0x8, addend: 0x0, symName: __ZNKSt3__116reverse_iteratorIPdEdeB8ue170006Ev, symObjAddr: 0x9510, symBinAddr: 0x10000CDAC, symSize: 0x28 }
  - { offsetInCU: 0x17FCC, offset: 0x17FCC, size: 0x8, addend: 0x0, symName: __ZNSt3__116reverse_iteratorIPdEppB8ue170006Ev, symObjAddr: 0x9538, symBinAddr: 0x10000CDD4, symSize: 0x20 }
  - { offsetInCU: 0x17FF2, offset: 0x17FF2, size: 0x8, addend: 0x0, symName: __ZNSt3__18_IterOpsINS_17_ClassicAlgPolicyEE25__validate_iter_referenceB8ue170006IRNS_16reverse_iteratorIPdEEEEvv, symObjAddr: 0x9558, symBinAddr: 0x10000CDF4, symSize: 0x4 }
  - { offsetInCU: 0x18010, offset: 0x18010, size: 0x8, addend: 0x0, symName: __ZNSt3__118__unwrap_iter_implINS_16reverse_iteratorIPdEELb0EE8__unwrapB8ue170006ES3_, symObjAddr: 0x955C, symBinAddr: 0x10000CDF8, symSize: 0x24 }
  - { offsetInCU: 0x18039, offset: 0x18039, size: 0x8, addend: 0x0, symName: __ZNSt3__14pairINS_16reverse_iteratorIPdEES3_EC1B8ue170006IS3_S3_LPv0EEEOT_OT0_, symObjAddr: 0x9580, symBinAddr: 0x10000CE1C, symSize: 0x3C }
  - { offsetInCU: 0x18097, offset: 0x18097, size: 0x8, addend: 0x0, symName: __ZNSt3__14pairINS_16reverse_iteratorIPdEES3_EC2B8ue170006IS3_S3_LPv0EEEOT_OT0_, symObjAddr: 0x95BC, symBinAddr: 0x10000CE58, symSize: 0x34 }
  - { offsetInCU: 0x180F5, offset: 0x180F5, size: 0x8, addend: 0x0, symName: __ZNSt3__118__unwrap_iter_implINS_16reverse_iteratorIPdEELb0EE8__rewrapB8ue170006ES3_S3_, symObjAddr: 0x95F0, symBinAddr: 0x10000CE8C, symSize: 0x2C }
  - { offsetInCU: 0x18122, offset: 0x18122, size: 0x8, addend: 0x0, symName: __ZNSt3__116reverse_iteratorIPdEC2B8ue170006ES1_, symObjAddr: 0x961C, symBinAddr: 0x10000CEB8, symSize: 0x28 }
  - { offsetInCU: 0x1815A, offset: 0x1815A, size: 0x8, addend: 0x0, symName: __ZNSt3__114__split_bufferIdRNS_9allocatorIdEEED2Ev, symObjAddr: 0x9644, symBinAddr: 0x10000CEE0, symSize: 0x8C }
  - { offsetInCU: 0x18186, offset: 0x18186, size: 0x8, addend: 0x0, symName: __ZNSt3__114__split_bufferIdRNS_9allocatorIdEEE5clearB8ue170006Ev, symObjAddr: 0x96D0, symBinAddr: 0x10000CF6C, symSize: 0x28 }
  - { offsetInCU: 0x181AC, offset: 0x181AC, size: 0x8, addend: 0x0, symName: __ZNSt3__116allocator_traitsINS_9allocatorIdEEE10deallocateB8ue170006ERS2_Pdm, symObjAddr: 0x96F8, symBinAddr: 0x10000CF94, symSize: 0x34 }
  - { offsetInCU: 0x181EE, offset: 0x181EE, size: 0x8, addend: 0x0, symName: __ZNKSt3__114__split_bufferIdRNS_9allocatorIdEEE8capacityB8ue170006Ev, symObjAddr: 0x972C, symBinAddr: 0x10000CFC8, symSize: 0x40 }
  - { offsetInCU: 0x18214, offset: 0x18214, size: 0x8, addend: 0x0, symName: __ZNSt3__114__split_bufferIdRNS_9allocatorIdEEE17__destruct_at_endB8ue170006EPd, symObjAddr: 0x976C, symBinAddr: 0x10000D008, symSize: 0x2C }
  - { offsetInCU: 0x18248, offset: 0x18248, size: 0x8, addend: 0x0, symName: __ZNSt3__114__split_bufferIdRNS_9allocatorIdEEE17__destruct_at_endB8ue170006EPdNS_17integral_constantIbLb0EEE, symObjAddr: 0x9798, symBinAddr: 0x10000D034, symSize: 0x80 }
  - { offsetInCU: 0x18288, offset: 0x18288, size: 0x8, addend: 0x0, symName: __ZNSt3__116allocator_traitsINS_9allocatorIdEEE7destroyB8ue170006IdvEEvRS2_PT_, symObjAddr: 0x9818, symBinAddr: 0x10000D0B4, symSize: 0x2C }
  - { offsetInCU: 0x182C5, offset: 0x182C5, size: 0x8, addend: 0x0, symName: __ZNSt3__19allocatorIdE7destroyB8ue170006EPd, symObjAddr: 0x9844, symBinAddr: 0x10000D0E0, symSize: 0x14 }
  - { offsetInCU: 0x182F9, offset: 0x182F9, size: 0x8, addend: 0x0, symName: __ZNSt3__19allocatorIdE10deallocateB8ue170006EPdm, symObjAddr: 0x9858, symBinAddr: 0x10000D0F4, symSize: 0x40 }
  - { offsetInCU: 0x1833B, offset: 0x1833B, size: 0x8, addend: 0x0, symName: __ZNKSt3__114__split_bufferIdRNS_9allocatorIdEEE9__end_capB8ue170006Ev, symObjAddr: 0x9914, symBinAddr: 0x10000D1B0, symSize: 0x28 }
  - { offsetInCU: 0x18361, offset: 0x18361, size: 0x8, addend: 0x0, symName: __ZNKSt3__117__compressed_pairIPdRNS_9allocatorIdEEE5firstB8ue170006Ev, symObjAddr: 0x993C, symBinAddr: 0x10000D1D8, symSize: 0x24 }
  - { offsetInCU: 0x18387, offset: 0x18387, size: 0x8, addend: 0x0, symName: __ZNSt3__16vectorIdNS_9allocatorIdEEE22__base_destruct_at_endB8ue170006EPd, symObjAddr: 0x9960, symBinAddr: 0x10000D1FC, symSize: 0x8C }
  - { offsetInCU: 0x183CB, offset: 0x183CB, size: 0x8, addend: 0x0, symName: __ZNKSt3__16vectorIdNS_9allocatorIdEEE17__annotate_shrinkB8ue170006Em, symObjAddr: 0x99EC, symBinAddr: 0x10000D288, symSize: 0xB4 }
  - { offsetInCU: 0x18400, offset: 0x18400, size: 0x8, addend: 0x0, symName: __ZNSt3__16vectorIdNS_9allocatorIdEEEC2EmRKd, symObjAddr: 0x9AA0, symBinAddr: 0x10000D33C, symSize: 0xDC }
  - { offsetInCU: 0x18465, offset: 0x18465, size: 0x8, addend: 0x0, symName: __ZNSt3__117__compressed_pairIPdNS_9allocatorIdEEEC1B8ue170006IDnNS_18__default_init_tagEEEOT_OT0_, symObjAddr: 0x9B7C, symBinAddr: 0x10000D418, symSize: 0x3C }
  - { offsetInCU: 0x184BD, offset: 0x184BD, size: 0x8, addend: 0x0, symName: __ZNSt3__16vectorIdNS_9allocatorIdEEE16__destroy_vectorC1B8ue170006ERS3_, symObjAddr: 0x9BF8, symBinAddr: 0x10000D494, symSize: 0x34 }
  - { offsetInCU: 0x184F6, offset: 0x184F6, size: 0x8, addend: 0x0, symName: __ZNSt3__16vectorIdNS_9allocatorIdEEE11__vallocateB8ue170006Em, symObjAddr: 0x9C2C, symBinAddr: 0x10000D4C8, symSize: 0xAC }
  - { offsetInCU: 0x1853A, offset: 0x1853A, size: 0x8, addend: 0x0, symName: __ZNSt3__128__exception_guard_exceptionsINS_6vectorIdNS_9allocatorIdEEE16__destroy_vectorEE10__completeB8ue170006Ev, symObjAddr: 0x9CD8, symBinAddr: 0x10000D574, symSize: 0x1C }
  - { offsetInCU: 0x18560, offset: 0x18560, size: 0x8, addend: 0x0, symName: __ZNSt3__128__exception_guard_exceptionsINS_6vectorIdNS_9allocatorIdEEE16__destroy_vectorEED1B8ue170006Ev, symObjAddr: 0x9CF4, symBinAddr: 0x10000D590, symSize: 0x2C }
  - { offsetInCU: 0x1858A, offset: 0x1858A, size: 0x8, addend: 0x0, symName: __ZNSt3__117__compressed_pairIPdNS_9allocatorIdEEEC2B8ue170006IDnNS_18__default_init_tagEEEOT_OT0_, symObjAddr: 0x9D20, symBinAddr: 0x10000D5BC, symSize: 0x40 }
  - { offsetInCU: 0x185E2, offset: 0x185E2, size: 0x8, addend: 0x0, symName: __ZNSt3__122__compressed_pair_elemINS_9allocatorIdEELi1ELb1EEC2B8ue170006ENS_18__default_init_tagE, symObjAddr: 0x9D60, symBinAddr: 0x10000D5FC, symSize: 0x2C }
  - { offsetInCU: 0x18616, offset: 0x18616, size: 0x8, addend: 0x0, symName: __ZNSt3__19allocatorIdEC2B8ue170006Ev, symObjAddr: 0x9D8C, symBinAddr: 0x10000D628, symSize: 0x2C }
  - { offsetInCU: 0x18640, offset: 0x18640, size: 0x8, addend: 0x0, symName: __ZNSt3__116__non_trivial_ifILb1ENS_9allocatorIdEEEC2B8ue170006Ev, symObjAddr: 0x9DB8, symBinAddr: 0x10000D654, symSize: 0x14 }
  - { offsetInCU: 0x1866A, offset: 0x1866A, size: 0x8, addend: 0x0, symName: __ZNSt3__128__exception_guard_exceptionsINS_6vectorIdNS_9allocatorIdEEE16__destroy_vectorEEC1B8ue170006ES5_, symObjAddr: 0x9DCC, symBinAddr: 0x10000D668, symSize: 0x34 }
  - { offsetInCU: 0x186A2, offset: 0x186A2, size: 0x8, addend: 0x0, symName: __ZNSt3__128__exception_guard_exceptionsINS_6vectorIdNS_9allocatorIdEEE16__destroy_vectorEEC2B8ue170006ES5_, symObjAddr: 0x9E00, symBinAddr: 0x10000D69C, symSize: 0x24 }
  - { offsetInCU: 0x186DA, offset: 0x186DA, size: 0x8, addend: 0x0, symName: __ZNSt3__16vectorIdNS_9allocatorIdEEE16__destroy_vectorC2B8ue170006ERS3_, symObjAddr: 0x9E24, symBinAddr: 0x10000D6C0, symSize: 0x20 }
  - { offsetInCU: 0x18713, offset: 0x18713, size: 0x8, addend: 0x0, symName: __ZNSt3__128__exception_guard_exceptionsINS_6vectorIdNS_9allocatorIdEEE16__destroy_vectorEED2B8ue170006Ev, symObjAddr: 0x9E44, symBinAddr: 0x10000D6E0, symSize: 0x50 }
  - { offsetInCU: 0x1873D, offset: 0x1873D, size: 0x8, addend: 0x0, symName: __ZNSt3__16vectorIdNS_9allocatorIdEEE16__destroy_vectorclB8ue170006Ev, symObjAddr: 0x9E94, symBinAddr: 0x10000D730, symSize: 0x90 }
  - { offsetInCU: 0x18763, offset: 0x18763, size: 0x8, addend: 0x0, symName: __ZNSt3__16vectorIdNS_9allocatorIdEEE7__clearB8ue170006Ev, symObjAddr: 0x9F24, symBinAddr: 0x10000D7C0, symSize: 0x28 }
  - { offsetInCU: 0x18789, offset: 0x18789, size: 0x8, addend: 0x0, symName: __ZNSt3__16vectorIdNS_9allocatorIdEEED2B8ue170006Ev, symObjAddr: 0x9F4C, symBinAddr: 0x10000D7E8, symSize: 0x40 }
  - { offsetInCU: 0x187B3, offset: 0x187B3, size: 0x8, addend: 0x0, symName: __ZNKSt3__16vectorINS0_IdNS_9allocatorIdEEEENS1_IS3_EEE4sizeB8ue170006Ev, symObjAddr: 0x9F8C, symBinAddr: 0x10000D828, symSize: 0x28 }
  - { offsetInCU: 0x187D9, offset: 0x187D9, size: 0x8, addend: 0x0, symName: __ZNSt3__16vectorINS0_IdNS_9allocatorIdEEEENS1_IS3_EEE8__appendEmRKS3_, symObjAddr: 0x9FB4, symBinAddr: 0x10000D850, symSize: 0x114 }
  - { offsetInCU: 0x18843, offset: 0x18843, size: 0x8, addend: 0x0, symName: __ZNSt3__16vectorINS0_IdNS_9allocatorIdEEEENS1_IS3_EEE17__destruct_at_endB8ue170006EPS3_, symObjAddr: 0xA0C8, symBinAddr: 0x10000D964, symSize: 0x4C }
  - { offsetInCU: 0x18887, offset: 0x18887, size: 0x8, addend: 0x0, symName: __ZNSt3__16vectorINS0_IdNS_9allocatorIdEEEENS1_IS3_EEE9__end_capB8ue170006Ev, symObjAddr: 0xA114, symBinAddr: 0x10000D9B0, symSize: 0x28 }
  - { offsetInCU: 0x188AD, offset: 0x188AD, size: 0x8, addend: 0x0, symName: __ZNSt3__16vectorINS0_IdNS_9allocatorIdEEEENS1_IS3_EEE18__construct_at_endEmRKS3_, symObjAddr: 0xA13C, symBinAddr: 0x10000D9D8, symSize: 0xD0 }
  - { offsetInCU: 0x1892E, offset: 0x1892E, size: 0x8, addend: 0x0, symName: __ZNSt3__16vectorINS0_IdNS_9allocatorIdEEEENS1_IS3_EEE7__allocB8ue170006Ev, symObjAddr: 0xA20C, symBinAddr: 0x10000DAA8, symSize: 0x28 }
  - { offsetInCU: 0x18954, offset: 0x18954, size: 0x8, addend: 0x0, symName: __ZNKSt3__16vectorINS0_IdNS_9allocatorIdEEEENS1_IS3_EEE11__recommendB8ue170006Em, symObjAddr: 0xA234, symBinAddr: 0x10000DAD0, symSize: 0xB4 }
  - { offsetInCU: 0x189A9, offset: 0x189A9, size: 0x8, addend: 0x0, symName: __ZNSt3__114__split_bufferINS_6vectorIdNS_9allocatorIdEEEERNS2_IS4_EEEC1EmmS6_, symObjAddr: 0xA2E8, symBinAddr: 0x10000DB84, symSize: 0x44 }
  - { offsetInCU: 0x189FF, offset: 0x189FF, size: 0x8, addend: 0x0, symName: __ZNSt3__114__split_bufferINS_6vectorIdNS_9allocatorIdEEEERNS2_IS4_EEE18__construct_at_endEmRKS4_, symObjAddr: 0xA32C, symBinAddr: 0x10000DBC8, symSize: 0xBC }
  - { offsetInCU: 0x18A52, offset: 0x18A52, size: 0x8, addend: 0x0, symName: __ZNSt3__114__split_bufferINS_6vectorIdNS_9allocatorIdEEEERNS2_IS4_EEED1Ev, symObjAddr: 0xA4F8, symBinAddr: 0x10000DD94, symSize: 0x2C }
  - { offsetInCU: 0x18A7E, offset: 0x18A7E, size: 0x8, addend: 0x0, symName: __ZNSt3__117__compressed_pairIPNS_6vectorIdNS_9allocatorIdEEEENS2_IS4_EEE5firstB8ue170006Ev, symObjAddr: 0xA524, symBinAddr: 0x10000DDC0, symSize: 0x24 }
  - { offsetInCU: 0x18AA4, offset: 0x18AA4, size: 0x8, addend: 0x0, symName: __ZNSt3__122__compressed_pair_elemIPNS_6vectorIdNS_9allocatorIdEEEELi0ELb0EE5__getB8ue170006Ev, symObjAddr: 0xA548, symBinAddr: 0x10000DDE4, symSize: 0x14 }
  - { offsetInCU: 0x18AE5, offset: 0x18AE5, size: 0x8, addend: 0x0, symName: __ZNSt3__16vectorINS0_IdNS_9allocatorIdEEEENS1_IS3_EEE21_ConstructTransactionC1B8ue170006ERS5_m, symObjAddr: 0xA55C, symBinAddr: 0x10000DDF8, symSize: 0x3C }
  - { offsetInCU: 0x18B2D, offset: 0x18B2D, size: 0x8, addend: 0x0, symName: __ZNSt3__116allocator_traitsINS_9allocatorINS_6vectorIdNS1_IdEEEEEEE9constructB8ue170006IS4_JRKS4_EvEEvRS5_PT_DpOT0_, symObjAddr: 0xA598, symBinAddr: 0x10000DE34, symSize: 0x34 }
  - { offsetInCU: 0x18B84, offset: 0x18B84, size: 0x8, addend: 0x0, symName: __ZNSt3__16vectorINS0_IdNS_9allocatorIdEEEENS1_IS3_EEE21_ConstructTransactionD1B8ue170006Ev, symObjAddr: 0xA5E0, symBinAddr: 0x10000DE7C, symSize: 0x2C }
  - { offsetInCU: 0x18BAE, offset: 0x18BAE, size: 0x8, addend: 0x0, symName: __ZNSt3__16vectorINS0_IdNS_9allocatorIdEEEENS1_IS3_EEE21_ConstructTransactionC2B8ue170006ERS5_m, symObjAddr: 0xA60C, symBinAddr: 0x10000DEA8, symSize: 0x4C }
  - { offsetInCU: 0x18BF6, offset: 0x18BF6, size: 0x8, addend: 0x0, symName: __ZNSt3__19allocatorINS_6vectorIdNS0_IdEEEEE9constructB8ue170006IS3_JRKS3_EEEvPT_DpOT0_, symObjAddr: 0xA658, symBinAddr: 0x10000DEF4, symSize: 0x30 }
  - { offsetInCU: 0x18C4C, offset: 0x18C4C, size: 0x8, addend: 0x0, symName: __ZNSt3__16vectorIdNS_9allocatorIdEEEC1ERKS3_, symObjAddr: 0xA688, symBinAddr: 0x10000DF24, symSize: 0x34 }
  - { offsetInCU: 0x18C87, offset: 0x18C87, size: 0x8, addend: 0x0, symName: __ZNSt3__16vectorIdNS_9allocatorIdEEEC2ERKS3_, symObjAddr: 0xA6BC, symBinAddr: 0x10000DF58, symSize: 0x94 }
  - { offsetInCU: 0x18CC2, offset: 0x18CC2, size: 0x8, addend: 0x0, symName: __ZNSt3__116allocator_traitsINS_9allocatorIdEEE37select_on_container_copy_constructionB8ue170006IS2_vvEES2_RKS2_, symObjAddr: 0xA750, symBinAddr: 0x10000DFEC, symSize: 0x10 }
  - { offsetInCU: 0x18CF7, offset: 0x18CF7, size: 0x8, addend: 0x0, symName: __ZNSt3__117__compressed_pairIPdNS_9allocatorIdEEEC1B8ue170006IDnS3_EEOT_OT0_, symObjAddr: 0xA760, symBinAddr: 0x10000DFFC, symSize: 0x3C }
  - { offsetInCU: 0x18D4F, offset: 0x18D4F, size: 0x8, addend: 0x0, symName: __ZNSt3__16vectorIdNS_9allocatorIdEEE16__init_with_sizeB8ue170006IPdS5_EEvT_T0_m, symObjAddr: 0xA79C, symBinAddr: 0x10000E038, symSize: 0xB8 }
  - { offsetInCU: 0x18DC3, offset: 0x18DC3, size: 0x8, addend: 0x0, symName: __ZNSt3__117__compressed_pairIPdNS_9allocatorIdEEEC2B8ue170006IDnS3_EEOT_OT0_, symObjAddr: 0xA854, symBinAddr: 0x10000E0F0, symSize: 0x44 }
  - { offsetInCU: 0x18E1B, offset: 0x18E1B, size: 0x8, addend: 0x0, symName: __ZNSt3__122__compressed_pair_elemINS_9allocatorIdEELi1ELb1EEC2B8ue170006IS2_vEEOT_, symObjAddr: 0xA898, symBinAddr: 0x10000E134, symSize: 0x18 }
  - { offsetInCU: 0x18E5D, offset: 0x18E5D, size: 0x8, addend: 0x0, symName: __ZNSt3__16vectorIdNS_9allocatorIdEEE18__construct_at_endIPdS5_EEvT_T0_m, symObjAddr: 0xA8B0, symBinAddr: 0x10000E14C, symSize: 0x8C }
  - { offsetInCU: 0x18EF5, offset: 0x18EF5, size: 0x8, addend: 0x0, symName: __ZNSt3__14pairIPdS1_EC1B8ue170006IS1_S1_LPv0EEEOT_OT0_, symObjAddr: 0xAAEC, symBinAddr: 0x10000E388, symSize: 0x3C }
  - { offsetInCU: 0x18F53, offset: 0x18F53, size: 0x8, addend: 0x0, symName: __ZNSt3__14pairIPdS1_EC2B8ue170006IS1_S1_LPv0EEEOT_OT0_, symObjAddr: 0xAB28, symBinAddr: 0x10000E3C4, symSize: 0x34 }
  - { offsetInCU: 0x18FBB, offset: 0x18FBB, size: 0x8, addend: 0x0, symName: __ZNKSt3__114__copy_trivialclB8ue170006IddLi0EEENS_4pairIPT_PT0_EES4_S4_S6_, symObjAddr: 0xACD8, symBinAddr: 0x10000E574, symSize: 0x48 }
  - { offsetInCU: 0x19023, offset: 0x19023, size: 0x8, addend: 0x0, symName: __ZNSt3__14pairIPdS1_EC1B8ue170006IRS1_S1_LPv0EEEOT_OT0_, symObjAddr: 0xAE68, symBinAddr: 0x10000E704, symSize: 0x3C }
  - { offsetInCU: 0x19081, offset: 0x19081, size: 0x8, addend: 0x0, symName: __ZNSt3__14pairIPdS1_EC2B8ue170006IRS1_S1_LPv0EEEOT_OT0_, symObjAddr: 0xAEA4, symBinAddr: 0x10000E740, symSize: 0x34 }
  - { offsetInCU: 0x190DF, offset: 0x190DF, size: 0x8, addend: 0x0, symName: __ZNSt3__118__unwrap_iter_implIPdLb1EE8__unwrapB8ue170006ES1_, symObjAddr: 0xAED8, symBinAddr: 0x10000E774, symSize: 0x24 }
  - { offsetInCU: 0x19102, offset: 0x19102, size: 0x8, addend: 0x0, symName: __ZNSt3__118__unwrap_iter_implIPdLb1EE8__rewrapB8ue170006ES1_S1_, symObjAddr: 0xAEFC, symBinAddr: 0x10000E798, symSize: 0x50 }
  - { offsetInCU: 0x19133, offset: 0x19133, size: 0x8, addend: 0x0, symName: __ZNSt3__16vectorINS0_IdNS_9allocatorIdEEEENS1_IS3_EEE21_ConstructTransactionD2B8ue170006Ev, symObjAddr: 0xAF4C, symBinAddr: 0x10000E7E8, symSize: 0x20 }
  - { offsetInCU: 0x1915D, offset: 0x1915D, size: 0x8, addend: 0x0, symName: __ZNSt3__117__compressed_pairIPNS_6vectorIdNS_9allocatorIdEEEENS2_IS4_EEE6secondB8ue170006Ev, symObjAddr: 0xAF6C, symBinAddr: 0x10000E808, symSize: 0x24 }
  - { offsetInCU: 0x19183, offset: 0x19183, size: 0x8, addend: 0x0, symName: __ZNSt3__122__compressed_pair_elemINS_9allocatorINS_6vectorIdNS1_IdEEEEEELi1ELb1EE5__getB8ue170006Ev, symObjAddr: 0xAF90, symBinAddr: 0x10000E82C, symSize: 0x14 }
  - { offsetInCU: 0x191A9, offset: 0x191A9, size: 0x8, addend: 0x0, symName: __ZNKSt3__16vectorINS0_IdNS_9allocatorIdEEEENS1_IS3_EEE8max_sizeEv, symObjAddr: 0xAFA4, symBinAddr: 0x10000E840, symSize: 0x60 }
  - { offsetInCU: 0x191D1, offset: 0x191D1, size: 0x8, addend: 0x0, symName: __ZNKSt3__16vectorINS0_IdNS_9allocatorIdEEEENS1_IS3_EEE20__throw_length_errorB8ue170006Ev, symObjAddr: 0xB004, symBinAddr: 0x10000E8A0, symSize: 0x1C }
  - { offsetInCU: 0x191F7, offset: 0x191F7, size: 0x8, addend: 0x0, symName: __ZNKSt3__16vectorINS0_IdNS_9allocatorIdEEEENS1_IS3_EEE8capacityB8ue170006Ev, symObjAddr: 0xB020, symBinAddr: 0x10000E8BC, symSize: 0x40 }
  - { offsetInCU: 0x19228, offset: 0x19228, size: 0x8, addend: 0x0, symName: __ZNSt3__116allocator_traitsINS_9allocatorINS_6vectorIdNS1_IdEEEEEEE8max_sizeB8ue170006IS5_vEEmRKS5_, symObjAddr: 0xB060, symBinAddr: 0x10000E8FC, symSize: 0x24 }
  - { offsetInCU: 0x19256, offset: 0x19256, size: 0x8, addend: 0x0, symName: __ZNKSt3__16vectorINS0_IdNS_9allocatorIdEEEENS1_IS3_EEE7__allocB8ue170006Ev, symObjAddr: 0xB084, symBinAddr: 0x10000E920, symSize: 0x28 }
  - { offsetInCU: 0x1927C, offset: 0x1927C, size: 0x8, addend: 0x0, symName: __ZNKSt3__19allocatorINS_6vectorIdNS0_IdEEEEE8max_sizeB8ue170006Ev, symObjAddr: 0xB0AC, symBinAddr: 0x10000E948, symSize: 0x18 }
  - { offsetInCU: 0x192A2, offset: 0x192A2, size: 0x8, addend: 0x0, symName: __ZNKSt3__117__compressed_pairIPNS_6vectorIdNS_9allocatorIdEEEENS2_IS4_EEE6secondB8ue170006Ev, symObjAddr: 0xB0C4, symBinAddr: 0x10000E960, symSize: 0x24 }
  - { offsetInCU: 0x192C8, offset: 0x192C8, size: 0x8, addend: 0x0, symName: __ZNKSt3__122__compressed_pair_elemINS_9allocatorINS_6vectorIdNS1_IdEEEEEELi1ELb1EE5__getB8ue170006Ev, symObjAddr: 0xB0E8, symBinAddr: 0x10000E984, symSize: 0x14 }
  - { offsetInCU: 0x192EE, offset: 0x192EE, size: 0x8, addend: 0x0, symName: __ZNKSt3__16vectorINS0_IdNS_9allocatorIdEEEENS1_IS3_EEE9__end_capB8ue170006Ev, symObjAddr: 0xB0FC, symBinAddr: 0x10000E998, symSize: 0x28 }
  - { offsetInCU: 0x19314, offset: 0x19314, size: 0x8, addend: 0x0, symName: __ZNKSt3__117__compressed_pairIPNS_6vectorIdNS_9allocatorIdEEEENS2_IS4_EEE5firstB8ue170006Ev, symObjAddr: 0xB124, symBinAddr: 0x10000E9C0, symSize: 0x24 }
  - { offsetInCU: 0x1933A, offset: 0x1933A, size: 0x8, addend: 0x0, symName: __ZNKSt3__122__compressed_pair_elemIPNS_6vectorIdNS_9allocatorIdEEEELi0ELb0EE5__getB8ue170006Ev, symObjAddr: 0xB148, symBinAddr: 0x10000E9E4, symSize: 0x14 }
  - { offsetInCU: 0x19360, offset: 0x19360, size: 0x8, addend: 0x0, symName: __ZNSt3__114__split_bufferINS_6vectorIdNS_9allocatorIdEEEERNS2_IS4_EEEC2EmmS6_, symObjAddr: 0xB15C, symBinAddr: 0x10000E9F8, symSize: 0xE0 }
  - { offsetInCU: 0x193D3, offset: 0x193D3, size: 0x8, addend: 0x0, symName: __ZNSt3__117__compressed_pairIPNS_6vectorIdNS_9allocatorIdEEEERNS2_IS4_EEEC1B8ue170006IDnS7_EEOT_OT0_, symObjAddr: 0xB23C, symBinAddr: 0x10000EAD8, symSize: 0x3C }
  - { offsetInCU: 0x1942B, offset: 0x1942B, size: 0x8, addend: 0x0, symName: __ZNSt3__114__split_bufferINS_6vectorIdNS_9allocatorIdEEEERNS2_IS4_EEE7__allocB8ue170006Ev, symObjAddr: 0xB2B8, symBinAddr: 0x10000EB54, symSize: 0x28 }
  - { offsetInCU: 0x19451, offset: 0x19451, size: 0x8, addend: 0x0, symName: __ZNSt3__114__split_bufferINS_6vectorIdNS_9allocatorIdEEEERNS2_IS4_EEE9__end_capB8ue170006Ev, symObjAddr: 0xB2E0, symBinAddr: 0x10000EB7C, symSize: 0x28 }
  - { offsetInCU: 0x19477, offset: 0x19477, size: 0x8, addend: 0x0, symName: __ZNSt3__117__compressed_pairIPNS_6vectorIdNS_9allocatorIdEEEERNS2_IS4_EEEC2B8ue170006IDnS7_EEOT_OT0_, symObjAddr: 0xB308, symBinAddr: 0x10000EBA4, symSize: 0x48 }
  - { offsetInCU: 0x194CF, offset: 0x194CF, size: 0x8, addend: 0x0, symName: __ZNSt3__122__compressed_pair_elemIPNS_6vectorIdNS_9allocatorIdEEEELi0ELb0EEC2B8ue170006IDnvEEOT_, symObjAddr: 0xB350, symBinAddr: 0x10000EBEC, symSize: 0x1C }
  - { offsetInCU: 0x19511, offset: 0x19511, size: 0x8, addend: 0x0, symName: __ZNSt3__122__compressed_pair_elemIRNS_9allocatorINS_6vectorIdNS1_IdEEEEEELi1ELb0EEC2B8ue170006IS6_vEEOT_, symObjAddr: 0xB36C, symBinAddr: 0x10000EC08, symSize: 0x20 }
  - { offsetInCU: 0x19553, offset: 0x19553, size: 0x8, addend: 0x0, symName: __ZNSt3__19allocatorINS_6vectorIdNS0_IdEEEEE8allocateB8ue170006Em, symObjAddr: 0xB38C, symBinAddr: 0x10000EC28, symSize: 0x5C }
  - { offsetInCU: 0x19587, offset: 0x19587, size: 0x8, addend: 0x0, symName: __ZNSt3__117__compressed_pairIPNS_6vectorIdNS_9allocatorIdEEEERNS2_IS4_EEE6secondB8ue170006Ev, symObjAddr: 0xB3E8, symBinAddr: 0x10000EC84, symSize: 0x28 }
  - { offsetInCU: 0x195AD, offset: 0x195AD, size: 0x8, addend: 0x0, symName: __ZNSt3__122__compressed_pair_elemIRNS_9allocatorINS_6vectorIdNS1_IdEEEEEELi1ELb0EE5__getB8ue170006Ev, symObjAddr: 0xB410, symBinAddr: 0x10000ECAC, symSize: 0x18 }
  - { offsetInCU: 0x195D3, offset: 0x195D3, size: 0x8, addend: 0x0, symName: __ZNSt3__117__compressed_pairIPNS_6vectorIdNS_9allocatorIdEEEERNS2_IS4_EEE5firstB8ue170006Ev, symObjAddr: 0xB428, symBinAddr: 0x10000ECC4, symSize: 0x24 }
  - { offsetInCU: 0x19603, offset: 0x19603, size: 0x8, addend: 0x0, symName: __ZNSt3__114__split_bufferINS_6vectorIdNS_9allocatorIdEEEERNS2_IS4_EEE21_ConstructTransactionC1B8ue170006EPPS4_m, symObjAddr: 0xB44C, symBinAddr: 0x10000ECE8, symSize: 0x3C }
  - { offsetInCU: 0x19649, offset: 0x19649, size: 0x8, addend: 0x0, symName: __ZNSt3__114__split_bufferINS_6vectorIdNS_9allocatorIdEEEERNS2_IS4_EEE21_ConstructTransactionD1B8ue170006Ev, symObjAddr: 0xB488, symBinAddr: 0x10000ED24, symSize: 0x2C }
  - { offsetInCU: 0x19673, offset: 0x19673, size: 0x8, addend: 0x0, symName: __ZNSt3__114__split_bufferINS_6vectorIdNS_9allocatorIdEEEERNS2_IS4_EEE21_ConstructTransactionC2B8ue170006EPPS4_m, symObjAddr: 0xB4B4, symBinAddr: 0x10000ED50, symSize: 0x4C }
  - { offsetInCU: 0x196B9, offset: 0x196B9, size: 0x8, addend: 0x0, symName: __ZNSt3__114__split_bufferINS_6vectorIdNS_9allocatorIdEEEERNS2_IS4_EEE21_ConstructTransactionD2B8ue170006Ev, symObjAddr: 0xB500, symBinAddr: 0x10000ED9C, symSize: 0x20 }
  - { offsetInCU: 0x196E3, offset: 0x196E3, size: 0x8, addend: 0x0, symName: __ZNKSt3__16vectorINS0_IdNS_9allocatorIdEEEENS1_IS3_EEE17__annotate_deleteB8ue170006Ev, symObjAddr: 0xB520, symBinAddr: 0x10000EDBC, symSize: 0xD4 }
  - { offsetInCU: 0x19709, offset: 0x19709, size: 0x8, addend: 0x0, symName: __ZNSt3__116reverse_iteratorIPNS_6vectorIdNS_9allocatorIdEEEEEC1B8ue170006ES5_, symObjAddr: 0xB720, symBinAddr: 0x10000EFBC, symSize: 0x34 }
  - { offsetInCU: 0x19741, offset: 0x19741, size: 0x8, addend: 0x0, symName: __ZNKSt3__116reverse_iteratorIPNS_6vectorIdNS_9allocatorIdEEEEE4baseB8ue170006Ev, symObjAddr: 0xB754, symBinAddr: 0x10000EFF0, symSize: 0x18 }
  - { offsetInCU: 0x19767, offset: 0x19767, size: 0x8, addend: 0x0, symName: __ZNKSt3__16vectorINS0_IdNS_9allocatorIdEEEENS1_IS3_EEE14__annotate_newB8ue170006Em, symObjAddr: 0xB7A8, symBinAddr: 0x10000F044, symSize: 0xC8 }
  - { offsetInCU: 0x1979C, offset: 0x1979C, size: 0x8, addend: 0x0, symName: __ZNKSt3__16vectorINS0_IdNS_9allocatorIdEEEENS1_IS3_EEE31__annotate_contiguous_containerB8ue170006EPKvS7_S7_S7_, symObjAddr: 0xB870, symBinAddr: 0x10000F10C, symSize: 0x20 }
  - { offsetInCU: 0x197EE, offset: 0x197EE, size: 0x8, addend: 0x0, symName: __ZNKSt3__16vectorINS0_IdNS_9allocatorIdEEEENS1_IS3_EEE4dataB8ue170006Ev, symObjAddr: 0xB890, symBinAddr: 0x10000F12C, symSize: 0x28 }
  - { offsetInCU: 0x19814, offset: 0x19814, size: 0x8, addend: 0x0, symName: __ZNSt3__129_AllocatorDestroyRangeReverseINS_9allocatorINS_6vectorIdNS1_IdEEEEEENS_16reverse_iteratorIPS4_EEEC1B8ue170006ERS5_RS8_SB_, symObjAddr: 0xB904, symBinAddr: 0x10000F1A0, symSize: 0x44 }
  - { offsetInCU: 0x1986B, offset: 0x1986B, size: 0x8, addend: 0x0, symName: __ZNSt3__116allocator_traitsINS_9allocatorINS_6vectorIdNS1_IdEEEEEEE9constructB8ue170006IS4_JS4_EvEEvRS5_PT_DpOT0_, symObjAddr: 0xB990, symBinAddr: 0x10000F22C, symSize: 0x34 }
  - { offsetInCU: 0x198C2, offset: 0x198C2, size: 0x8, addend: 0x0, symName: __ZNKSt3__116reverse_iteratorIPNS_6vectorIdNS_9allocatorIdEEEEEdeB8ue170006Ev, symObjAddr: 0xB9E8, symBinAddr: 0x10000F284, symSize: 0x28 }
  - { offsetInCU: 0x198F6, offset: 0x198F6, size: 0x8, addend: 0x0, symName: __ZNSt3__116reverse_iteratorIPNS_6vectorIdNS_9allocatorIdEEEEEppB8ue170006Ev, symObjAddr: 0xBA10, symBinAddr: 0x10000F2AC, symSize: 0x20 }
  - { offsetInCU: 0x1991C, offset: 0x1991C, size: 0x8, addend: 0x0, symName: __ZNSt3__128__exception_guard_exceptionsINS_29_AllocatorDestroyRangeReverseINS_9allocatorINS_6vectorIdNS2_IdEEEEEENS_16reverse_iteratorIPS5_EEEEE10__completeB8ue170006Ev, symObjAddr: 0xBA30, symBinAddr: 0x10000F2CC, symSize: 0x1C }
  - { offsetInCU: 0x19942, offset: 0x19942, size: 0x8, addend: 0x0, symName: __ZNSt3__128__exception_guard_exceptionsINS_29_AllocatorDestroyRangeReverseINS_9allocatorINS_6vectorIdNS2_IdEEEEEENS_16reverse_iteratorIPS5_EEEEED1B8ue170006Ev, symObjAddr: 0xBA4C, symBinAddr: 0x10000F2E8, symSize: 0x2C }
  - { offsetInCU: 0x1996C, offset: 0x1996C, size: 0x8, addend: 0x0, symName: __ZNSt3__128__exception_guard_exceptionsINS_29_AllocatorDestroyRangeReverseINS_9allocatorINS_6vectorIdNS2_IdEEEEEENS_16reverse_iteratorIPS5_EEEEEC1B8ue170006ESA_, symObjAddr: 0xBA78, symBinAddr: 0x10000F314, symSize: 0x34 }
  - { offsetInCU: 0x199A5, offset: 0x199A5, size: 0x8, addend: 0x0, symName: __ZNSt3__128__exception_guard_exceptionsINS_29_AllocatorDestroyRangeReverseINS_9allocatorINS_6vectorIdNS2_IdEEEEEENS_16reverse_iteratorIPS5_EEEEEC2B8ue170006ESA_, symObjAddr: 0xBAAC, symBinAddr: 0x10000F348, symSize: 0x30 }
  - { offsetInCU: 0x199DE, offset: 0x199DE, size: 0x8, addend: 0x0, symName: __ZNSt3__129_AllocatorDestroyRangeReverseINS_9allocatorINS_6vectorIdNS1_IdEEEEEENS_16reverse_iteratorIPS4_EEEC2B8ue170006ERS5_RS8_SB_, symObjAddr: 0xBADC, symBinAddr: 0x10000F378, symSize: 0x38 }
  - { offsetInCU: 0x19A35, offset: 0x19A35, size: 0x8, addend: 0x0, symName: __ZNSt3__19allocatorINS_6vectorIdNS0_IdEEEEE9constructB8ue170006IS3_JS3_EEEvPT_DpOT0_, symObjAddr: 0xBB14, symBinAddr: 0x10000F3B0, symSize: 0x30 }
  - { offsetInCU: 0x19A8B, offset: 0x19A8B, size: 0x8, addend: 0x0, symName: __ZNSt3__16vectorIdNS_9allocatorIdEEEC1B8ue170006EOS3_, symObjAddr: 0xBB44, symBinAddr: 0x10000F3E0, symSize: 0x34 }
  - { offsetInCU: 0x19AC6, offset: 0x19AC6, size: 0x8, addend: 0x0, symName: __ZNSt3__16vectorIdNS_9allocatorIdEEEC2B8ue170006EOS3_, symObjAddr: 0xBB78, symBinAddr: 0x10000F414, symSize: 0xC4 }
  - { offsetInCU: 0x19B07, offset: 0x19B07, size: 0x8, addend: 0x0, symName: __ZNSt3__119__to_address_helperINS_16reverse_iteratorIPNS_6vectorIdNS_9allocatorIdEEEEEEvE6__callB8ue170006ERKS7_, symObjAddr: 0xBC3C, symBinAddr: 0x10000F4D8, symSize: 0x38 }
  - { offsetInCU: 0x19B2A, offset: 0x19B2A, size: 0x8, addend: 0x0, symName: __ZNKSt3__116reverse_iteratorIPNS_6vectorIdNS_9allocatorIdEEEEEptB8ue170006Ev, symObjAddr: 0xBC74, symBinAddr: 0x10000F510, symSize: 0x24 }
  - { offsetInCU: 0x19B50, offset: 0x19B50, size: 0x8, addend: 0x0, symName: __ZNSt3__128__exception_guard_exceptionsINS_29_AllocatorDestroyRangeReverseINS_9allocatorINS_6vectorIdNS2_IdEEEEEENS_16reverse_iteratorIPS5_EEEEED2B8ue170006Ev, symObjAddr: 0xBC98, symBinAddr: 0x10000F534, symSize: 0x50 }
  - { offsetInCU: 0x19B7A, offset: 0x19B7A, size: 0x8, addend: 0x0, symName: __ZNKSt3__129_AllocatorDestroyRangeReverseINS_9allocatorINS_6vectorIdNS1_IdEEEEEENS_16reverse_iteratorIPS4_EEEclB8ue170006Ev, symObjAddr: 0xBCE8, symBinAddr: 0x10000F584, symSize: 0xB4 }
  - { offsetInCU: 0x19BA1, offset: 0x19BA1, size: 0x8, addend: 0x0, symName: __ZNSt3__116reverse_iteratorINS0_IPNS_6vectorIdNS_9allocatorIdEEEEEEEC1B8ue170006ES6_, symObjAddr: 0xBE0C, symBinAddr: 0x10000F6A8, symSize: 0x3C }
  - { offsetInCU: 0x19BD9, offset: 0x19BD9, size: 0x8, addend: 0x0, symName: __ZNSt3__116allocator_traitsINS_9allocatorINS_6vectorIdNS1_IdEEEEEEE7destroyB8ue170006IS4_vEEvRS5_PT_, symObjAddr: 0xBEA8, symBinAddr: 0x10000F744, symSize: 0x2C }
  - { offsetInCU: 0x19C16, offset: 0x19C16, size: 0x8, addend: 0x0, symName: __ZNSt3__116reverse_iteratorINS0_IPNS_6vectorIdNS_9allocatorIdEEEEEEEppB8ue170006Ev, symObjAddr: 0xBEF8, symBinAddr: 0x10000F794, symSize: 0x30 }
  - { offsetInCU: 0x19C3C, offset: 0x19C3C, size: 0x8, addend: 0x0, symName: __ZNKSt3__116reverse_iteratorINS0_IPNS_6vectorIdNS_9allocatorIdEEEEEEE4baseB8ue170006Ev, symObjAddr: 0xBF28, symBinAddr: 0x10000F7C4, symSize: 0x24 }
  - { offsetInCU: 0x19C62, offset: 0x19C62, size: 0x8, addend: 0x0, symName: __ZNSt3__19allocatorINS_6vectorIdNS0_IdEEEEE7destroyB8ue170006EPS3_, symObjAddr: 0xBF4C, symBinAddr: 0x10000F7E8, symSize: 0x28 }
  - { offsetInCU: 0x19C9C, offset: 0x19C9C, size: 0x8, addend: 0x0, symName: __ZNSt3__119__to_address_helperINS_16reverse_iteratorINS1_IPNS_6vectorIdNS_9allocatorIdEEEEEEEEvE6__callB8ue170006ERKS8_, symObjAddr: 0xBF74, symBinAddr: 0x10000F810, symSize: 0x38 }
  - { offsetInCU: 0x19CBF, offset: 0x19CBF, size: 0x8, addend: 0x0, symName: __ZNKSt3__116reverse_iteratorINS0_IPNS_6vectorIdNS_9allocatorIdEEEEEEEptB8ue170006Ev, symObjAddr: 0xBFAC, symBinAddr: 0x10000F848, symSize: 0x24 }
  - { offsetInCU: 0x19CE5, offset: 0x19CE5, size: 0x8, addend: 0x0, symName: __ZNKSt3__116reverse_iteratorINS0_IPNS_6vectorIdNS_9allocatorIdEEEEEEEdeB8ue170006Ev, symObjAddr: 0xBFD0, symBinAddr: 0x10000F86C, symSize: 0x34 }
  - { offsetInCU: 0x19D19, offset: 0x19D19, size: 0x8, addend: 0x0, symName: __ZNSt3__116reverse_iteratorIPNS_6vectorIdNS_9allocatorIdEEEEEmmB8ue170006Ev, symObjAddr: 0xC004, symBinAddr: 0x10000F8A0, symSize: 0x20 }
  - { offsetInCU: 0x19D3F, offset: 0x19D3F, size: 0x8, addend: 0x0, symName: __ZNSt3__116reverse_iteratorINS0_IPNS_6vectorIdNS_9allocatorIdEEEEEEEC2B8ue170006ES6_, symObjAddr: 0xC024, symBinAddr: 0x10000F8C0, symSize: 0x2C }
  - { offsetInCU: 0x19D77, offset: 0x19D77, size: 0x8, addend: 0x0, symName: __ZNSt3__116reverse_iteratorIPNS_6vectorIdNS_9allocatorIdEEEEEC2B8ue170006ES5_, symObjAddr: 0xC050, symBinAddr: 0x10000F8EC, symSize: 0x28 }
  - { offsetInCU: 0x19DAF, offset: 0x19DAF, size: 0x8, addend: 0x0, symName: __ZNSt3__114__split_bufferINS_6vectorIdNS_9allocatorIdEEEERNS2_IS4_EEED2Ev, symObjAddr: 0xC078, symBinAddr: 0x10000F914, symSize: 0x8C }
  - { offsetInCU: 0x19DDB, offset: 0x19DDB, size: 0x8, addend: 0x0, symName: __ZNSt3__114__split_bufferINS_6vectorIdNS_9allocatorIdEEEERNS2_IS4_EEE5clearB8ue170006Ev, symObjAddr: 0xC104, symBinAddr: 0x10000F9A0, symSize: 0x28 }
  - { offsetInCU: 0x19E01, offset: 0x19E01, size: 0x8, addend: 0x0, symName: __ZNSt3__116allocator_traitsINS_9allocatorINS_6vectorIdNS1_IdEEEEEEE10deallocateB8ue170006ERS5_PS4_m, symObjAddr: 0xC12C, symBinAddr: 0x10000F9C8, symSize: 0x34 }
  - { offsetInCU: 0x19E43, offset: 0x19E43, size: 0x8, addend: 0x0, symName: __ZNKSt3__114__split_bufferINS_6vectorIdNS_9allocatorIdEEEERNS2_IS4_EEE8capacityB8ue170006Ev, symObjAddr: 0xC160, symBinAddr: 0x10000F9FC, symSize: 0x40 }
  - { offsetInCU: 0x19E69, offset: 0x19E69, size: 0x8, addend: 0x0, symName: __ZNSt3__114__split_bufferINS_6vectorIdNS_9allocatorIdEEEERNS2_IS4_EEE17__destruct_at_endB8ue170006EPS4_, symObjAddr: 0xC1A0, symBinAddr: 0x10000FA3C, symSize: 0x2C }
  - { offsetInCU: 0x19E9D, offset: 0x19E9D, size: 0x8, addend: 0x0, symName: __ZNSt3__114__split_bufferINS_6vectorIdNS_9allocatorIdEEEERNS2_IS4_EEE17__destruct_at_endB8ue170006EPS4_NS_17integral_constantIbLb0EEE, symObjAddr: 0xC1CC, symBinAddr: 0x10000FA68, symSize: 0x80 }
  - { offsetInCU: 0x19EDD, offset: 0x19EDD, size: 0x8, addend: 0x0, symName: __ZNSt3__19allocatorINS_6vectorIdNS0_IdEEEEE10deallocateB8ue170006EPS3_m, symObjAddr: 0xC24C, symBinAddr: 0x10000FAE8, symSize: 0x44 }
  - { offsetInCU: 0x19F1F, offset: 0x19F1F, size: 0x8, addend: 0x0, symName: __ZNKSt3__114__split_bufferINS_6vectorIdNS_9allocatorIdEEEERNS2_IS4_EEE9__end_capB8ue170006Ev, symObjAddr: 0xC290, symBinAddr: 0x10000FB2C, symSize: 0x28 }
  - { offsetInCU: 0x19F45, offset: 0x19F45, size: 0x8, addend: 0x0, symName: __ZNKSt3__117__compressed_pairIPNS_6vectorIdNS_9allocatorIdEEEERNS2_IS4_EEE5firstB8ue170006Ev, symObjAddr: 0xC2B8, symBinAddr: 0x10000FB54, symSize: 0x24 }
  - { offsetInCU: 0x19F6B, offset: 0x19F6B, size: 0x8, addend: 0x0, symName: __ZNSt3__16vectorINS0_IdNS_9allocatorIdEEEENS1_IS3_EEE22__base_destruct_at_endB8ue170006EPS3_, symObjAddr: 0xC2DC, symBinAddr: 0x10000FB78, symSize: 0x8C }
  - { offsetInCU: 0x19FAF, offset: 0x19FAF, size: 0x8, addend: 0x0, symName: __ZNKSt3__16vectorINS0_IdNS_9allocatorIdEEEENS1_IS3_EEE17__annotate_shrinkB8ue170006Em, symObjAddr: 0xC368, symBinAddr: 0x10000FC04, symSize: 0xD0 }
  - { offsetInCU: 0x19FE4, offset: 0x19FE4, size: 0x8, addend: 0x0, symName: __ZNSt3__16vectorIdNS_9allocatorIdEEE19__copy_assign_allocB8ue170006ERKS3_, symObjAddr: 0xC438, symBinAddr: 0x10000FCD4, symSize: 0x2C }
  - { offsetInCU: 0x1A019, offset: 0x1A019, size: 0x8, addend: 0x0, symName: __ZNSt3__16vectorIdNS_9allocatorIdEEE6assignIPdLi0EEEvT_S6_, symObjAddr: 0xC464, symBinAddr: 0x10000FD00, symSize: 0x5C }
  - { offsetInCU: 0x1A06E, offset: 0x1A06E, size: 0x8, addend: 0x0, symName: __ZNSt3__16vectorIdNS_9allocatorIdEEE19__copy_assign_allocB8ue170006ERKS3_NS_17integral_constantIbLb0EEE, symObjAddr: 0xC4C0, symBinAddr: 0x10000FD5C, symSize: 0x14 }
  - { offsetInCU: 0x1A0AA, offset: 0x1A0AA, size: 0x8, addend: 0x0, symName: __ZNSt3__16vectorIdNS_9allocatorIdEEE18__assign_with_sizeB8ue170006IPdS5_EEvT_T0_l, symObjAddr: 0xC4D4, symBinAddr: 0x10000FD70, symSize: 0x164 }
  - { offsetInCU: 0x1A15A, offset: 0x1A15A, size: 0x8, addend: 0x0, symName: __ZNSt3__16vectorIdNS_9allocatorIdEEE13__vdeallocateEv, symObjAddr: 0xC698, symBinAddr: 0x10000FF34, symSize: 0x94 }
  - { offsetInCU: 0x1A182, offset: 0x1A182, size: 0x8, addend: 0x0, symName: __ZNSt3__16vectorIdNS_9allocatorIdEEE5clearB8ue170006Ev, symObjAddr: 0xC7A0, symBinAddr: 0x10001003C, symSize: 0x44 }
  - { offsetInCU: 0x1A1B7, offset: 0x1A1B7, size: 0x8, addend: 0x0, symName: __ZNSt3__13mapINS_12basic_stringIcNS_11char_traitsIcEENS_9allocatorIcEEEENS0_IS6_NS_6vectorIdNS4_IdEEEENS_4lessIS6_EENS4_INS_4pairIKS6_S9_EEEEEESB_NS4_INSC_ISD_SG_EEEEEC2B8ue170006Ev, symObjAddr: 0xC80C, symBinAddr: 0x1000100A8, symSize: 0x40 }
  - { offsetInCU: 0x1A1E1, offset: 0x1A1E1, size: 0x8, addend: 0x0, symName: __ZNSt3__119__map_value_compareINS_12basic_stringIcNS_11char_traitsIcEENS_9allocatorIcEEEENS_12__value_typeIS6_NS_3mapIS6_NS_6vectorIdNS4_IdEEEENS_4lessIS6_EENS4_INS_4pairIKS6_SB_EEEEEEEESD_Lb1EEC1B8ue170006ESD_, symObjAddr: 0xC84C, symBinAddr: 0x1000100E8, symSize: 0x2C }
  - { offsetInCU: 0x1A21A, offset: 0x1A21A, size: 0x8, addend: 0x0, symName: __ZNSt3__16__treeINS_12__value_typeINS_12basic_stringIcNS_11char_traitsIcEENS_9allocatorIcEEEENS_3mapIS7_NS_6vectorIdNS5_IdEEEENS_4lessIS7_EENS5_INS_4pairIKS7_SB_EEEEEEEENS_19__map_value_compareIS7_SJ_SD_Lb1EEENS5_ISJ_EEEC1ERKSL_, symObjAddr: 0xC878, symBinAddr: 0x100010114, symSize: 0x34 }
  - { offsetInCU: 0x1A255, offset: 0x1A255, size: 0x8, addend: 0x0, symName: __ZNSt3__119__map_value_compareINS_12basic_stringIcNS_11char_traitsIcEENS_9allocatorIcEEEENS_12__value_typeIS6_NS_3mapIS6_NS_6vectorIdNS4_IdEEEENS_4lessIS6_EENS4_INS_4pairIKS6_SB_EEEEEEEESD_Lb1EEC2B8ue170006ESD_, symObjAddr: 0xC8AC, symBinAddr: 0x100010148, symSize: 0x14 }
  - { offsetInCU: 0x1A28E, offset: 0x1A28E, size: 0x8, addend: 0x0, symName: __ZNSt3__16__treeINS_12__value_typeINS_12basic_stringIcNS_11char_traitsIcEENS_9allocatorIcEEEENS_3mapIS7_NS_6vectorIdNS5_IdEEEENS_4lessIS7_EENS5_INS_4pairIKS7_SB_EEEEEEEENS_19__map_value_compareIS7_SJ_SD_Lb1EEENS5_ISJ_EEEC2ERKSL_, symObjAddr: 0xC8C0, symBinAddr: 0x10001015C, symSize: 0x7C }
  - { offsetInCU: 0x1A2C9, offset: 0x1A2C9, size: 0x8, addend: 0x0, symName: __ZNSt3__117__compressed_pairINS_15__tree_end_nodeIPNS_16__tree_node_baseIPvEEEENS_9allocatorINS_11__tree_nodeINS_12__value_typeINS_12basic_stringIcNS_11char_traitsIcEENS7_IcEEEENS_3mapISE_NS_6vectorIdNS7_IdEEEENS_4lessISE_EENS7_INS_4pairIKSE_SI_EEEEEEEES3_EEEEEC1B8ue170006ILb1EvEEv, symObjAddr: 0xC93C, symBinAddr: 0x1000101D8, symSize: 0x2C }
  - { offsetInCU: 0x1A304, offset: 0x1A304, size: 0x8, addend: 0x0, symName: __ZNSt3__117__compressed_pairImNS_19__map_value_compareINS_12basic_stringIcNS_11char_traitsIcEENS_9allocatorIcEEEENS_12__value_typeIS7_NS_3mapIS7_NS_6vectorIdNS5_IdEEEENS_4lessIS7_EENS5_INS_4pairIKS7_SC_EEEEEEEESE_Lb1EEEEC1B8ue170006IiRKSL_EEOT_OT0_, symObjAddr: 0xC968, symBinAddr: 0x100010204, symSize: 0x3C }
  - { offsetInCU: 0x1A35C, offset: 0x1A35C, size: 0x8, addend: 0x0, symName: __ZNSt3__16__treeINS_12__value_typeINS_12basic_stringIcNS_11char_traitsIcEENS_9allocatorIcEEEENS_3mapIS7_NS_6vectorIdNS5_IdEEEENS_4lessIS7_EENS5_INS_4pairIKS7_SB_EEEEEEEENS_19__map_value_compareIS7_SJ_SD_Lb1EEENS5_ISJ_EEE10__end_nodeB8ue170006Ev, symObjAddr: 0xC9A4, symBinAddr: 0x100010240, symSize: 0x2C }
  - { offsetInCU: 0x1A382, offset: 0x1A382, size: 0x8, addend: 0x0, symName: __ZNSt3__16__treeINS_12__value_typeINS_12basic_stringIcNS_11char_traitsIcEENS_9allocatorIcEEEENS_3mapIS7_NS_6vectorIdNS5_IdEEEENS_4lessIS7_EENS5_INS_4pairIKS7_SB_EEEEEEEENS_19__map_value_compareIS7_SJ_SD_Lb1EEENS5_ISJ_EEE12__begin_nodeB8ue170006Ev, symObjAddr: 0xC9D0, symBinAddr: 0x10001026C, symSize: 0x14 }
  - { offsetInCU: 0x1A3A8, offset: 0x1A3A8, size: 0x8, addend: 0x0, symName: __ZNSt3__117__compressed_pairINS_15__tree_end_nodeIPNS_16__tree_node_baseIPvEEEENS_9allocatorINS_11__tree_nodeINS_12__value_typeINS_12basic_stringIcNS_11char_traitsIcEENS7_IcEEEENS_3mapISE_NS_6vectorIdNS7_IdEEEENS_4lessISE_EENS7_INS_4pairIKSE_SI_EEEEEEEES3_EEEEEC2B8ue170006ILb1EvEEv, symObjAddr: 0xC9E4, symBinAddr: 0x100010280, symSize: 0x34 }
  - { offsetInCU: 0x1A3DD, offset: 0x1A3DD, size: 0x8, addend: 0x0, symName: __ZNSt3__122__compressed_pair_elemINS_15__tree_end_nodeIPNS_16__tree_node_baseIPvEEEELi0ELb0EEC2B8ue170006ENS_16__value_init_tagE, symObjAddr: 0xCA18, symBinAddr: 0x1000102B4, symSize: 0x2C }
  - { offsetInCU: 0x1A411, offset: 0x1A411, size: 0x8, addend: 0x0, symName: __ZNSt3__122__compressed_pair_elemINS_9allocatorINS_11__tree_nodeINS_12__value_typeINS_12basic_stringIcNS_11char_traitsIcEENS1_IcEEEENS_3mapIS8_NS_6vectorIdNS1_IdEEEENS_4lessIS8_EENS1_INS_4pairIKS8_SC_EEEEEEEEPvEEEELi1ELb1EEC2B8ue170006ENS_16__value_init_tagE, symObjAddr: 0xCA44, symBinAddr: 0x1000102E0, symSize: 0x2C }
  - { offsetInCU: 0x1A445, offset: 0x1A445, size: 0x8, addend: 0x0, symName: __ZNSt3__115__tree_end_nodeIPNS_16__tree_node_baseIPvEEEC1B8ue170006Ev, symObjAddr: 0xCA70, symBinAddr: 0x10001030C, symSize: 0x2C }
  - { offsetInCU: 0x1A46F, offset: 0x1A46F, size: 0x8, addend: 0x0, symName: __ZNSt3__115__tree_end_nodeIPNS_16__tree_node_baseIPvEEEC2B8ue170006Ev, symObjAddr: 0xCA9C, symBinAddr: 0x100010338, symSize: 0x18 }
  - { offsetInCU: 0x1A499, offset: 0x1A499, size: 0x8, addend: 0x0, symName: __ZNSt3__19allocatorINS_11__tree_nodeINS_12__value_typeINS_12basic_stringIcNS_11char_traitsIcEENS0_IcEEEENS_3mapIS7_NS_6vectorIdNS0_IdEEEENS_4lessIS7_EENS0_INS_4pairIKS7_SB_EEEEEEEEPvEEEC2B8ue170006Ev, symObjAddr: 0xCAB4, symBinAddr: 0x100010350, symSize: 0x2C }
  - { offsetInCU: 0x1A4C3, offset: 0x1A4C3, size: 0x8, addend: 0x0, symName: __ZNSt3__116__non_trivial_ifILb1ENS_9allocatorINS_11__tree_nodeINS_12__value_typeINS_12basic_stringIcNS_11char_traitsIcEENS1_IcEEEENS_3mapIS8_NS_6vectorIdNS1_IdEEEENS_4lessIS8_EENS1_INS_4pairIKS8_SC_EEEEEEEEPvEEEEEC2B8ue170006Ev, symObjAddr: 0xCAE0, symBinAddr: 0x10001037C, symSize: 0x14 }
  - { offsetInCU: 0x1A4ED, offset: 0x1A4ED, size: 0x8, addend: 0x0, symName: __ZNSt3__117__compressed_pairImNS_19__map_value_compareINS_12basic_stringIcNS_11char_traitsIcEENS_9allocatorIcEEEENS_12__value_typeIS7_NS_3mapIS7_NS_6vectorIdNS5_IdEEEENS_4lessIS7_EENS5_INS_4pairIKS7_SC_EEEEEEEESE_Lb1EEEEC2B8ue170006IiRKSL_EEOT_OT0_, symObjAddr: 0xCAF4, symBinAddr: 0x100010390, symSize: 0x44 }
  - { offsetInCU: 0x1A545, offset: 0x1A545, size: 0x8, addend: 0x0, symName: __ZNSt3__122__compressed_pair_elemImLi0ELb0EEC2B8ue170006IivEEOT_, symObjAddr: 0xCB38, symBinAddr: 0x1000103D4, symSize: 0x24 }
  - { offsetInCU: 0x1A587, offset: 0x1A587, size: 0x8, addend: 0x0, symName: __ZNSt3__122__compressed_pair_elemINS_19__map_value_compareINS_12basic_stringIcNS_11char_traitsIcEENS_9allocatorIcEEEENS_12__value_typeIS7_NS_3mapIS7_NS_6vectorIdNS5_IdEEEENS_4lessIS7_EENS5_INS_4pairIKS7_SC_EEEEEEEESE_Lb1EEELi1ELb1EEC2B8ue170006IRKSL_vEEOT_, symObjAddr: 0xCB5C, symBinAddr: 0x1000103F8, symSize: 0x18 }
  - { offsetInCU: 0x1A5C9, offset: 0x1A5C9, size: 0x8, addend: 0x0, symName: __ZNSt3__114pointer_traitsIPNS_15__tree_end_nodeIPNS_16__tree_node_baseIPvEEEEE10pointer_toB8ue170006ERS6_, symObjAddr: 0xCB74, symBinAddr: 0x100010410, symSize: 0x14 }
  - { offsetInCU: 0x1A5EC, offset: 0x1A5EC, size: 0x8, addend: 0x0, symName: __ZNSt3__117__compressed_pairINS_15__tree_end_nodeIPNS_16__tree_node_baseIPvEEEENS_9allocatorINS_11__tree_nodeINS_12__value_typeINS_12basic_stringIcNS_11char_traitsIcEENS7_IcEEEENS_3mapISE_NS_6vectorIdNS7_IdEEEENS_4lessISE_EENS7_INS_4pairIKSE_SI_EEEEEEEES3_EEEEE5firstB8ue170006Ev, symObjAddr: 0xCB88, symBinAddr: 0x100010424, symSize: 0x24 }
  - { offsetInCU: 0x1A612, offset: 0x1A612, size: 0x8, addend: 0x0, symName: __ZNSt3__122__compressed_pair_elemINS_15__tree_end_nodeIPNS_16__tree_node_baseIPvEEEELi0ELb0EE5__getB8ue170006Ev, symObjAddr: 0xCBAC, symBinAddr: 0x100010448, symSize: 0x14 }
  - { offsetInCU: 0x1A638, offset: 0x1A638, size: 0x8, addend: 0x0, symName: __ZNSt3__13mapINS_12basic_stringIcNS_11char_traitsIcEENS_9allocatorIcEEEENS0_IS6_NS_6vectorIdNS4_IdEEEENS_4lessIS6_EENS4_INS_4pairIKS6_S9_EEEEEESB_NS4_INSC_ISD_SG_EEEEED2B8ue170006Ev, symObjAddr: 0xCBC0, symBinAddr: 0x10001045C, symSize: 0x2C }
  - { offsetInCU: 0x1A662, offset: 0x1A662, size: 0x8, addend: 0x0, symName: __ZNSt3__16__treeINS_12__value_typeINS_12basic_stringIcNS_11char_traitsIcEENS_9allocatorIcEEEENS_3mapIS7_NS_6vectorIdNS5_IdEEEENS_4lessIS7_EENS5_INS_4pairIKS7_SB_EEEEEEEENS_19__map_value_compareIS7_SJ_SD_Lb1EEENS5_ISJ_EEED1Ev, symObjAddr: 0xCBEC, symBinAddr: 0x100010488, symSize: 0x2C }
  - { offsetInCU: 0x1A68E, offset: 0x1A68E, size: 0x8, addend: 0x0, symName: __ZNSt3__16__treeINS_12__value_typeINS_12basic_stringIcNS_11char_traitsIcEENS_9allocatorIcEEEENS_3mapIS7_NS_6vectorIdNS5_IdEEEENS_4lessIS7_EENS5_INS_4pairIKS7_SB_EEEEEEEENS_19__map_value_compareIS7_SJ_SD_Lb1EEENS5_ISJ_EEED2Ev, symObjAddr: 0xCC18, symBinAddr: 0x1000104B4, symSize: 0x38 }
  - { offsetInCU: 0x1A6BA, offset: 0x1A6BA, size: 0x8, addend: 0x0, symName: __ZNSt3__16__treeINS_12__value_typeINS_12basic_stringIcNS_11char_traitsIcEENS_9allocatorIcEEEENS_3mapIS7_NS_6vectorIdNS5_IdEEEENS_4lessIS7_EENS5_INS_4pairIKS7_SB_EEEEEEEENS_19__map_value_compareIS7_SJ_SD_Lb1EEENS5_ISJ_EEE7destroyEPNS_11__tree_nodeISJ_PvEE, symObjAddr: 0xCC50, symBinAddr: 0x1000104EC, symSize: 0xAC }
  - { offsetInCU: 0x1A706, offset: 0x1A706, size: 0x8, addend: 0x0, symName: __ZNKSt3__16__treeINS_12__value_typeINS_12basic_stringIcNS_11char_traitsIcEENS_9allocatorIcEEEENS_3mapIS7_NS_6vectorIdNS5_IdEEEENS_4lessIS7_EENS5_INS_4pairIKS7_SB_EEEEEEEENS_19__map_value_compareIS7_SJ_SD_Lb1EEENS5_ISJ_EEE6__rootB8ue170006Ev, symObjAddr: 0xCCFC, symBinAddr: 0x100010598, symSize: 0x28 }
  - { offsetInCU: 0x1A72C, offset: 0x1A72C, size: 0x8, addend: 0x0, symName: __ZNSt3__16__treeINS_12__value_typeINS_12basic_stringIcNS_11char_traitsIcEENS_9allocatorIcEEEENS_3mapIS7_NS_6vectorIdNS5_IdEEEENS_4lessIS7_EENS5_INS_4pairIKS7_SB_EEEEEEEENS_19__map_value_compareIS7_SJ_SD_Lb1EEENS5_ISJ_EEE12__node_allocB8ue170006Ev, symObjAddr: 0xCD24, symBinAddr: 0x1000105C0, symSize: 0x28 }
  - { offsetInCU: 0x1A752, offset: 0x1A752, size: 0x8, addend: 0x0, symName: __ZNSt3__116allocator_traitsINS_9allocatorINS_11__tree_nodeINS_12__value_typeINS_12basic_stringIcNS_11char_traitsIcEENS1_IcEEEENS_3mapIS8_NS_6vectorIdNS1_IdEEEENS_4lessIS8_EENS1_INS_4pairIKS8_SC_EEEEEEEEPvEEEEE7destroyB8ue170006INSF_ISG_SJ_EEvvEEvRSN_PT_, symObjAddr: 0xCD4C, symBinAddr: 0x1000105E8, symSize: 0x28 }
  - { offsetInCU: 0x1A78C, offset: 0x1A78C, size: 0x8, addend: 0x0, symName: __ZNSt3__122__tree_key_value_typesINS_12__value_typeINS_12basic_stringIcNS_11char_traitsIcEENS_9allocatorIcEEEENS_3mapIS7_NS_6vectorIdNS5_IdEEEENS_4lessIS7_EENS5_INS_4pairIKS7_SB_EEEEEEEEE9__get_ptrB8ue170006ERSJ_, symObjAddr: 0xCD74, symBinAddr: 0x100010610, symSize: 0x24 }
  - { offsetInCU: 0x1A7B0, offset: 0x1A7B0, size: 0x8, addend: 0x0, symName: __ZNSt3__116allocator_traitsINS_9allocatorINS_11__tree_nodeINS_12__value_typeINS_12basic_stringIcNS_11char_traitsIcEENS1_IcEEEENS_3mapIS8_NS_6vectorIdNS1_IdEEEENS_4lessIS8_EENS1_INS_4pairIKS8_SC_EEEEEEEEPvEEEEE10deallocateB8ue170006ERSN_PSM_m, symObjAddr: 0xCD98, symBinAddr: 0x100010634, symSize: 0x34 }
  - { offsetInCU: 0x1A7F2, offset: 0x1A7F2, size: 0x8, addend: 0x0, symName: __ZNSt3__117__compressed_pairINS_15__tree_end_nodeIPNS_16__tree_node_baseIPvEEEENS_9allocatorINS_11__tree_nodeINS_12__value_typeINS_12basic_stringIcNS_11char_traitsIcEENS7_IcEEEENS_3mapISE_NS_6vectorIdNS7_IdEEEENS_4lessISE_EENS7_INS_4pairIKSE_SI_EEEEEEEES3_EEEEE6secondB8ue170006Ev, symObjAddr: 0xCDCC, symBinAddr: 0x100010668, symSize: 0x24 }
  - { offsetInCU: 0x1A818, offset: 0x1A818, size: 0x8, addend: 0x0, symName: __ZNSt3__122__compressed_pair_elemINS_9allocatorINS_11__tree_nodeINS_12__value_typeINS_12basic_stringIcNS_11char_traitsIcEENS1_IcEEEENS_3mapIS8_NS_6vectorIdNS1_IdEEEENS_4lessIS8_EENS1_INS_4pairIKS8_SC_EEEEEEEEPvEEEELi1ELb1EE5__getB8ue170006Ev, symObjAddr: 0xCDF0, symBinAddr: 0x10001068C, symSize: 0x14 }
  - { offsetInCU: 0x1A83E, offset: 0x1A83E, size: 0x8, addend: 0x0, symName: __ZNSt3__14pairIKNS_12basic_stringIcNS_11char_traitsIcEENS_9allocatorIcEEEENS_3mapIS6_NS_6vectorIdNS4_IdEEEENS_4lessIS6_EENS4_INS0_IS7_SB_EEEEEEED1Ev, symObjAddr: 0xCE04, symBinAddr: 0x1000106A0, symSize: 0x2C }
  - { offsetInCU: 0x1A86A, offset: 0x1A86A, size: 0x8, addend: 0x0, symName: __ZNSt3__14pairIKNS_12basic_stringIcNS_11char_traitsIcEENS_9allocatorIcEEEENS_3mapIS6_NS_6vectorIdNS4_IdEEEENS_4lessIS6_EENS4_INS0_IS7_SB_EEEEEEED2Ev, symObjAddr: 0xCE30, symBinAddr: 0x1000106CC, symSize: 0x38 }
  - { offsetInCU: 0x1A896, offset: 0x1A896, size: 0x8, addend: 0x0, symName: __ZNSt3__13mapINS_12basic_stringIcNS_11char_traitsIcEENS_9allocatorIcEEEENS_6vectorIdNS4_IdEEEENS_4lessIS6_EENS4_INS_4pairIKS6_S9_EEEEED1B8ue170006Ev, symObjAddr: 0xCE68, symBinAddr: 0x100010704, symSize: 0x2C }
  - { offsetInCU: 0x1A8C0, offset: 0x1A8C0, size: 0x8, addend: 0x0, symName: __ZNSt3__13mapINS_12basic_stringIcNS_11char_traitsIcEENS_9allocatorIcEEEENS_6vectorIdNS4_IdEEEENS_4lessIS6_EENS4_INS_4pairIKS6_S9_EEEEED2B8ue170006Ev, symObjAddr: 0xCE94, symBinAddr: 0x100010730, symSize: 0x2C }
  - { offsetInCU: 0x1A8EA, offset: 0x1A8EA, size: 0x8, addend: 0x0, symName: __ZNSt3__16__treeINS_12__value_typeINS_12basic_stringIcNS_11char_traitsIcEENS_9allocatorIcEEEENS_6vectorIdNS5_IdEEEEEENS_19__map_value_compareIS7_SB_NS_4lessIS7_EELb1EEENS5_ISB_EEED1Ev, symObjAddr: 0xCEC0, symBinAddr: 0x10001075C, symSize: 0x2C }
  - { offsetInCU: 0x1A916, offset: 0x1A916, size: 0x8, addend: 0x0, symName: __ZNSt3__16__treeINS_12__value_typeINS_12basic_stringIcNS_11char_traitsIcEENS_9allocatorIcEEEENS_6vectorIdNS5_IdEEEEEENS_19__map_value_compareIS7_SB_NS_4lessIS7_EELb1EEENS5_ISB_EEED2Ev, symObjAddr: 0xCEEC, symBinAddr: 0x100010788, symSize: 0x38 }
  - { offsetInCU: 0x1A942, offset: 0x1A942, size: 0x8, addend: 0x0, symName: __ZNSt3__16__treeINS_12__value_typeINS_12basic_stringIcNS_11char_traitsIcEENS_9allocatorIcEEEENS_6vectorIdNS5_IdEEEEEENS_19__map_value_compareIS7_SB_NS_4lessIS7_EELb1EEENS5_ISB_EEE7destroyEPNS_11__tree_nodeISB_PvEE, symObjAddr: 0xCF24, symBinAddr: 0x1000107C0, symSize: 0xAC }
  - { offsetInCU: 0x1A98E, offset: 0x1A98E, size: 0x8, addend: 0x0, symName: __ZNKSt3__16__treeINS_12__value_typeINS_12basic_stringIcNS_11char_traitsIcEENS_9allocatorIcEEEENS_6vectorIdNS5_IdEEEEEENS_19__map_value_compareIS7_SB_NS_4lessIS7_EELb1EEENS5_ISB_EEE6__rootB8ue170006Ev, symObjAddr: 0xCFD0, symBinAddr: 0x10001086C, symSize: 0x28 }
  - { offsetInCU: 0x1A9B4, offset: 0x1A9B4, size: 0x8, addend: 0x0, symName: __ZNSt3__16__treeINS_12__value_typeINS_12basic_stringIcNS_11char_traitsIcEENS_9allocatorIcEEEENS_6vectorIdNS5_IdEEEEEENS_19__map_value_compareIS7_SB_NS_4lessIS7_EELb1EEENS5_ISB_EEE12__node_allocB8ue170006Ev, symObjAddr: 0xCFF8, symBinAddr: 0x100010894, symSize: 0x28 }
  - { offsetInCU: 0x1A9DA, offset: 0x1A9DA, size: 0x8, addend: 0x0, symName: __ZNSt3__116allocator_traitsINS_9allocatorINS_11__tree_nodeINS_12__value_typeINS_12basic_stringIcNS_11char_traitsIcEENS1_IcEEEENS_6vectorIdNS1_IdEEEEEEPvEEEEE7destroyB8ue170006INS_4pairIKS8_SB_EEvvEEvRSF_PT_, symObjAddr: 0xD020, symBinAddr: 0x1000108BC, symSize: 0x28 }
  - { offsetInCU: 0x1AA14, offset: 0x1AA14, size: 0x8, addend: 0x0, symName: __ZNSt3__122__tree_key_value_typesINS_12__value_typeINS_12basic_stringIcNS_11char_traitsIcEENS_9allocatorIcEEEENS_6vectorIdNS5_IdEEEEEEE9__get_ptrB8ue170006ERSB_, symObjAddr: 0xD048, symBinAddr: 0x1000108E4, symSize: 0x24 }
  - { offsetInCU: 0x1AA38, offset: 0x1AA38, size: 0x8, addend: 0x0, symName: __ZNSt3__116allocator_traitsINS_9allocatorINS_11__tree_nodeINS_12__value_typeINS_12basic_stringIcNS_11char_traitsIcEENS1_IcEEEENS_6vectorIdNS1_IdEEEEEEPvEEEEE10deallocateB8ue170006ERSF_PSE_m, symObjAddr: 0xD06C, symBinAddr: 0x100010908, symSize: 0x34 }
  - { offsetInCU: 0x1AA7A, offset: 0x1AA7A, size: 0x8, addend: 0x0, symName: __ZNSt3__117__compressed_pairINS_15__tree_end_nodeIPNS_16__tree_node_baseIPvEEEENS_9allocatorINS_11__tree_nodeINS_12__value_typeINS_12basic_stringIcNS_11char_traitsIcEENS7_IcEEEENS_6vectorIdNS7_IdEEEEEES3_EEEEE6secondB8ue170006Ev, symObjAddr: 0xD0A0, symBinAddr: 0x10001093C, symSize: 0x24 }
  - { offsetInCU: 0x1AAA0, offset: 0x1AAA0, size: 0x8, addend: 0x0, symName: __ZNSt3__122__compressed_pair_elemINS_9allocatorINS_11__tree_nodeINS_12__value_typeINS_12basic_stringIcNS_11char_traitsIcEENS1_IcEEEENS_6vectorIdNS1_IdEEEEEEPvEEEELi1ELb1EE5__getB8ue170006Ev, symObjAddr: 0xD0C4, symBinAddr: 0x100010960, symSize: 0x14 }
  - { offsetInCU: 0x1AAC6, offset: 0x1AAC6, size: 0x8, addend: 0x0, symName: __ZNSt3__112__value_typeINS_12basic_stringIcNS_11char_traitsIcEENS_9allocatorIcEEEENS_6vectorIdNS4_IdEEEEE11__get_valueB8ue170006Ev, symObjAddr: 0xD0D8, symBinAddr: 0x100010974, symSize: 0x14 }
  - { offsetInCU: 0x1AAEC, offset: 0x1AAEC, size: 0x8, addend: 0x0, symName: __ZNSt3__19allocatorINS_11__tree_nodeINS_12__value_typeINS_12basic_stringIcNS_11char_traitsIcEENS0_IcEEEENS_6vectorIdNS0_IdEEEEEEPvEEE10deallocateB8ue170006EPSD_m, symObjAddr: 0xD0EC, symBinAddr: 0x100010988, symSize: 0x44 }
  - { offsetInCU: 0x1AB2E, offset: 0x1AB2E, size: 0x8, addend: 0x0, symName: __ZNKSt3__16__treeINS_12__value_typeINS_12basic_stringIcNS_11char_traitsIcEENS_9allocatorIcEEEENS_6vectorIdNS5_IdEEEEEENS_19__map_value_compareIS7_SB_NS_4lessIS7_EELb1EEENS5_ISB_EEE10__end_nodeB8ue170006Ev, symObjAddr: 0xD130, symBinAddr: 0x1000109CC, symSize: 0x2C }
  - { offsetInCU: 0x1AB54, offset: 0x1AB54, size: 0x8, addend: 0x0, symName: __ZNKSt3__117__compressed_pairINS_15__tree_end_nodeIPNS_16__tree_node_baseIPvEEEENS_9allocatorINS_11__tree_nodeINS_12__value_typeINS_12basic_stringIcNS_11char_traitsIcEENS7_IcEEEENS_6vectorIdNS7_IdEEEEEES3_EEEEE5firstB8ue170006Ev, symObjAddr: 0xD15C, symBinAddr: 0x1000109F8, symSize: 0x24 }
  - { offsetInCU: 0x1AB7A, offset: 0x1AB7A, size: 0x8, addend: 0x0, symName: __ZNKSt3__122__compressed_pair_elemINS_15__tree_end_nodeIPNS_16__tree_node_baseIPvEEEELi0ELb0EE5__getB8ue170006Ev, symObjAddr: 0xD180, symBinAddr: 0x100010A1C, symSize: 0x14 }
  - { offsetInCU: 0x1ABA0, offset: 0x1ABA0, size: 0x8, addend: 0x0, symName: __ZNSt3__112__value_typeINS_12basic_stringIcNS_11char_traitsIcEENS_9allocatorIcEEEENS_3mapIS6_NS_6vectorIdNS4_IdEEEENS_4lessIS6_EENS4_INS_4pairIKS6_SA_EEEEEEE11__get_valueB8ue170006Ev, symObjAddr: 0xD194, symBinAddr: 0x100010A30, symSize: 0x14 }
  - { offsetInCU: 0x1ABC6, offset: 0x1ABC6, size: 0x8, addend: 0x0, symName: __ZNSt3__19allocatorINS_11__tree_nodeINS_12__value_typeINS_12basic_stringIcNS_11char_traitsIcEENS0_IcEEEENS_3mapIS7_NS_6vectorIdNS0_IdEEEENS_4lessIS7_EENS0_INS_4pairIKS7_SB_EEEEEEEEPvEEE10deallocateB8ue170006EPSL_m, symObjAddr: 0xD1A8, symBinAddr: 0x100010A44, symSize: 0x44 }
  - { offsetInCU: 0x1AC08, offset: 0x1AC08, size: 0x8, addend: 0x0, symName: __ZNKSt3__16__treeINS_12__value_typeINS_12basic_stringIcNS_11char_traitsIcEENS_9allocatorIcEEEENS_3mapIS7_NS_6vectorIdNS5_IdEEEENS_4lessIS7_EENS5_INS_4pairIKS7_SB_EEEEEEEENS_19__map_value_compareIS7_SJ_SD_Lb1EEENS5_ISJ_EEE10__end_nodeB8ue170006Ev, symObjAddr: 0xD1EC, symBinAddr: 0x100010A88, symSize: 0x2C }
  - { offsetInCU: 0x1AC2E, offset: 0x1AC2E, size: 0x8, addend: 0x0, symName: __ZNKSt3__117__compressed_pairINS_15__tree_end_nodeIPNS_16__tree_node_baseIPvEEEENS_9allocatorINS_11__tree_nodeINS_12__value_typeINS_12basic_stringIcNS_11char_traitsIcEENS7_IcEEEENS_3mapISE_NS_6vectorIdNS7_IdEEEENS_4lessISE_EENS7_INS_4pairIKSE_SI_EEEEEEEES3_EEEEE5firstB8ue170006Ev, symObjAddr: 0xD218, symBinAddr: 0x100010AB4, symSize: 0x24 }
  - { offsetInCU: 0x1AC54, offset: 0x1AC54, size: 0x8, addend: 0x0, symName: __ZNSt3__112basic_stringIcNS_11char_traitsIcEENS_9allocatorIcEEEC2B8ue170006ILi0EEEPKc, symObjAddr: 0xD23C, symBinAddr: 0x100010AD8, symSize: 0x58 }
  - { offsetInCU: 0x1AC93, offset: 0x1AC93, size: 0x8, addend: 0x0, symName: __ZNSt3__117__compressed_pairINS_12basic_stringIcNS_11char_traitsIcEENS_9allocatorIcEEE5__repES5_EC1B8ue170006INS_18__default_init_tagESA_EEOT_OT0_, symObjAddr: 0xD294, symBinAddr: 0x100010B30, symSize: 0x3C }
  - { offsetInCU: 0x1ACEB, offset: 0x1ACEB, size: 0x8, addend: 0x0, symName: __ZNSt3__111char_traitsIcE6lengthB8ue170006EPKc, symObjAddr: 0xD2D0, symBinAddr: 0x100010B6C, symSize: 0x34 }
  - { offsetInCU: 0x1AD0E, offset: 0x1AD0E, size: 0x8, addend: 0x0, symName: __ZNSt3__117__compressed_pairINS_12basic_stringIcNS_11char_traitsIcEENS_9allocatorIcEEE5__repES5_EC2B8ue170006INS_18__default_init_tagESA_EEOT_OT0_, symObjAddr: 0xD304, symBinAddr: 0x100010BA0, symSize: 0x3C }
  - { offsetInCU: 0x1AD66, offset: 0x1AD66, size: 0x8, addend: 0x0, symName: __ZNSt3__122__compressed_pair_elemINS_12basic_stringIcNS_11char_traitsIcEENS_9allocatorIcEEE5__repELi0ELb0EEC2B8ue170006ENS_18__default_init_tagE, symObjAddr: 0xD340, symBinAddr: 0x100010BDC, symSize: 0x14 }
  - { offsetInCU: 0x1AD9A, offset: 0x1AD9A, size: 0x8, addend: 0x0, symName: __ZNSt3__122__compressed_pair_elemINS_9allocatorIcEELi1ELb1EEC2B8ue170006ENS_18__default_init_tagE, symObjAddr: 0xD354, symBinAddr: 0x100010BF0, symSize: 0x2C }
  - { offsetInCU: 0x1ADCE, offset: 0x1ADCE, size: 0x8, addend: 0x0, symName: __ZNSt3__19allocatorIcEC2B8ue170006Ev, symObjAddr: 0xD380, symBinAddr: 0x100010C1C, symSize: 0x2C }
  - { offsetInCU: 0x1ADF8, offset: 0x1ADF8, size: 0x8, addend: 0x0, symName: __ZNSt3__116__non_trivial_ifILb1ENS_9allocatorIcEEEC2B8ue170006Ev, symObjAddr: 0xD3AC, symBinAddr: 0x100010C48, symSize: 0x14 }
  - { offsetInCU: 0x1AE39, offset: 0x1AE39, size: 0x8, addend: 0x0, symName: __ZNSt3__16__treeINS_12__value_typeINS_12basic_stringIcNS_11char_traitsIcEENS_9allocatorIcEEEENS_3mapIS7_NS_6vectorIdNS5_IdEEEENS_4lessIS7_EENS5_INS_4pairIKS7_SB_EEEEEEEENS_19__map_value_compareIS7_SJ_SD_Lb1EEENS5_ISJ_EEE25__emplace_unique_key_argsIS7_JRKNS_21piecewise_construct_tENS_5tupleIJOS7_EEENSS_IJEEEEEENSE_INS_15__tree_iteratorISJ_PNS_11__tree_nodeISJ_PvEElEEbEERKT_DpOT0_, symObjAddr: 0xD3E4, symBinAddr: 0x100010C80, symSize: 0x100 }
  - { offsetInCU: 0x1AF0F, offset: 0x1AF0F, size: 0x8, addend: 0x0, symName: __ZNKSt3__115__tree_iteratorINS_12__value_typeINS_12basic_stringIcNS_11char_traitsIcEENS_9allocatorIcEEEENS_3mapIS7_NS_6vectorIdNS5_IdEEEENS_4lessIS7_EENS5_INS_4pairIKS7_SB_EEEEEEEEPNS_11__tree_nodeISJ_PvEElEptB8ue170006Ev, symObjAddr: 0xD514, symBinAddr: 0x100010DB0, symSize: 0x2C }
  - { offsetInCU: 0x1AF35, offset: 0x1AF35, size: 0x8, addend: 0x0, symName: __ZNSt3__16__treeINS_12__value_typeINS_12basic_stringIcNS_11char_traitsIcEENS_9allocatorIcEEEENS_3mapIS7_NS_6vectorIdNS5_IdEEEENS_4lessIS7_EENS5_INS_4pairIKS7_SB_EEEEEEEENS_19__map_value_compareIS7_SJ_SD_Lb1EEENS5_ISJ_EEE12__find_equalIS7_EERPNS_16__tree_node_baseIPvEERPNS_15__tree_end_nodeISS_EERKT_, symObjAddr: 0xD540, symBinAddr: 0x100010DDC, symSize: 0x184 }
  - { offsetInCU: 0x1AFA2, offset: 0x1AFA2, size: 0x8, addend: 0x0, symName: __ZNSt3__16__treeINS_12__value_typeINS_12basic_stringIcNS_11char_traitsIcEENS_9allocatorIcEEEENS_3mapIS7_NS_6vectorIdNS5_IdEEEENS_4lessIS7_EENS5_INS_4pairIKS7_SB_EEEEEEEENS_19__map_value_compareIS7_SJ_SD_Lb1EEENS5_ISJ_EEE16__construct_nodeIJRKNS_21piecewise_construct_tENS_5tupleIJOS7_EEENSS_IJEEEEEENS_10unique_ptrINS_11__tree_nodeISJ_PvEENS_22__tree_node_destructorINS5_ISZ_EEEEEEDpOT_, symObjAddr: 0xD6C4, symBinAddr: 0x100010F60, symSize: 0x120 }
  - { offsetInCU: 0x1B02B, offset: 0x1B02B, size: 0x8, addend: 0x0, symName: __ZNSt3__16__treeINS_12__value_typeINS_12basic_stringIcNS_11char_traitsIcEENS_9allocatorIcEEEENS_3mapIS7_NS_6vectorIdNS5_IdEEEENS_4lessIS7_EENS5_INS_4pairIKS7_SB_EEEEEEEENS_19__map_value_compareIS7_SJ_SD_Lb1EEENS5_ISJ_EEE16__insert_node_atEPNS_15__tree_end_nodeIPNS_16__tree_node_baseIPvEEEERSS_SS_, symObjAddr: 0xD7E4, symBinAddr: 0x100011080, symSize: 0xCC }
  - { offsetInCU: 0x1B080, offset: 0x1B080, size: 0x8, addend: 0x0, symName: __ZNKSt3__110unique_ptrINS_11__tree_nodeINS_12__value_typeINS_12basic_stringIcNS_11char_traitsIcEENS_9allocatorIcEEEENS_3mapIS8_NS_6vectorIdNS6_IdEEEENS_4lessIS8_EENS6_INS_4pairIKS8_SC_EEEEEEEEPvEENS_22__tree_node_destructorINS6_ISM_EEEEE3getB8ue170006Ev, symObjAddr: 0xD8B0, symBinAddr: 0x10001114C, symSize: 0x28 }
  - { offsetInCU: 0x1B0A6, offset: 0x1B0A6, size: 0x8, addend: 0x0, symName: __ZNSt3__110unique_ptrINS_11__tree_nodeINS_12__value_typeINS_12basic_stringIcNS_11char_traitsIcEENS_9allocatorIcEEEENS_3mapIS8_NS_6vectorIdNS6_IdEEEENS_4lessIS8_EENS6_INS_4pairIKS8_SC_EEEEEEEEPvEENS_22__tree_node_destructorINS6_ISM_EEEEE7releaseB8ue170006Ev, symObjAddr: 0xD8D8, symBinAddr: 0x100011174, symSize: 0x44 }
  - { offsetInCU: 0x1B0DB, offset: 0x1B0DB, size: 0x8, addend: 0x0, symName: __ZNSt3__110unique_ptrINS_11__tree_nodeINS_12__value_typeINS_12basic_stringIcNS_11char_traitsIcEENS_9allocatorIcEEEENS_3mapIS8_NS_6vectorIdNS6_IdEEEENS_4lessIS8_EENS6_INS_4pairIKS8_SC_EEEEEEEEPvEENS_22__tree_node_destructorINS6_ISM_EEEEED1B8ue170006Ev, symObjAddr: 0xD91C, symBinAddr: 0x1000111B8, symSize: 0x2C }
  - { offsetInCU: 0x1B105, offset: 0x1B105, size: 0x8, addend: 0x0, symName: __ZNSt3__115__tree_iteratorINS_12__value_typeINS_12basic_stringIcNS_11char_traitsIcEENS_9allocatorIcEEEENS_3mapIS7_NS_6vectorIdNS5_IdEEEENS_4lessIS7_EENS5_INS_4pairIKS7_SB_EEEEEEEEPNS_11__tree_nodeISJ_PvEElEC1B8ue170006ESN_, symObjAddr: 0xD948, symBinAddr: 0x1000111E4, symSize: 0x34 }
  - { offsetInCU: 0x1B144, offset: 0x1B144, size: 0x8, addend: 0x0, symName: __ZNSt3__14pairINS_15__tree_iteratorINS_12__value_typeINS_12basic_stringIcNS_11char_traitsIcEENS_9allocatorIcEEEENS_3mapIS8_NS_6vectorIdNS6_IdEEEENS_4lessIS8_EENS6_INS0_IKS8_SC_EEEEEEEEPNS_11__tree_nodeISJ_PvEElEEbEC1B8ue170006ISO_RbLSL_0EEEOT_OT0_, symObjAddr: 0xD97C, symBinAddr: 0x100011218, symSize: 0x3C }
  - { offsetInCU: 0x1B1A2, offset: 0x1B1A2, size: 0x8, addend: 0x0, symName: __ZNKSt3__16__treeINS_12__value_typeINS_12basic_stringIcNS_11char_traitsIcEENS_9allocatorIcEEEENS_3mapIS7_NS_6vectorIdNS5_IdEEEENS_4lessIS7_EENS5_INS_4pairIKS7_SB_EEEEEEEENS_19__map_value_compareIS7_SJ_SD_Lb1EEENS5_ISJ_EEE10__root_ptrB8ue170006Ev, symObjAddr: 0xD9B8, symBinAddr: 0x100011254, symSize: 0x24 }
  - { offsetInCU: 0x1B1C8, offset: 0x1B1C8, size: 0x8, addend: 0x0, symName: __ZNSt3__16__treeINS_12__value_typeINS_12basic_stringIcNS_11char_traitsIcEENS_9allocatorIcEEEENS_3mapIS7_NS_6vectorIdNS5_IdEEEENS_4lessIS7_EENS5_INS_4pairIKS7_SB_EEEEEEEENS_19__map_value_compareIS7_SJ_SD_Lb1EEENS5_ISJ_EEE10value_compB8ue170006Ev, symObjAddr: 0xD9DC, symBinAddr: 0x100011278, symSize: 0x28 }
  - { offsetInCU: 0x1B1EE, offset: 0x1B1EE, size: 0x8, addend: 0x0, symName: __ZNKSt3__119__map_value_compareINS_12basic_stringIcNS_11char_traitsIcEENS_9allocatorIcEEEENS_12__value_typeIS6_NS_3mapIS6_NS_6vectorIdNS4_IdEEEENS_4lessIS6_EENS4_INS_4pairIKS6_SB_EEEEEEEESD_Lb1EEclB8ue170006ERSF_RKSJ_, symObjAddr: 0xDA04, symBinAddr: 0x1000112A0, symSize: 0x50 }
  - { offsetInCU: 0x1B232, offset: 0x1B232, size: 0x8, addend: 0x0, symName: __ZNKSt3__119__map_value_compareINS_12basic_stringIcNS_11char_traitsIcEENS_9allocatorIcEEEENS_12__value_typeIS6_NS_3mapIS6_NS_6vectorIdNS4_IdEEEENS_4lessIS6_EENS4_INS_4pairIKS6_SB_EEEEEEEESD_Lb1EEclB8ue170006ERKSJ_RSF_, symObjAddr: 0xDA54, symBinAddr: 0x1000112F0, symSize: 0x48 }
  - { offsetInCU: 0x1B276, offset: 0x1B276, size: 0x8, addend: 0x0, symName: __ZNSt3__117__compressed_pairImNS_19__map_value_compareINS_12basic_stringIcNS_11char_traitsIcEENS_9allocatorIcEEEENS_12__value_typeIS7_NS_3mapIS7_NS_6vectorIdNS5_IdEEEENS_4lessIS7_EENS5_INS_4pairIKS7_SC_EEEEEEEESE_Lb1EEEE6secondB8ue170006Ev, symObjAddr: 0xDA9C, symBinAddr: 0x100011338, symSize: 0x24 }
  - { offsetInCU: 0x1B29C, offset: 0x1B29C, size: 0x8, addend: 0x0, symName: __ZNSt3__122__compressed_pair_elemINS_19__map_value_compareINS_12basic_stringIcNS_11char_traitsIcEENS_9allocatorIcEEEENS_12__value_typeIS7_NS_3mapIS7_NS_6vectorIdNS5_IdEEEENS_4lessIS7_EENS5_INS_4pairIKS7_SC_EEEEEEEESE_Lb1EEELi1ELb1EE5__getB8ue170006Ev, symObjAddr: 0xDAC0, symBinAddr: 0x10001135C, symSize: 0x14 }
  - { offsetInCU: 0x1B2C2, offset: 0x1B2C2, size: 0x8, addend: 0x0, symName: __ZNKSt3__14lessINS_12basic_stringIcNS_11char_traitsIcEENS_9allocatorIcEEEEEclB8ue170006ERKS6_S9_, symObjAddr: 0xDAD4, symBinAddr: 0x100011370, symSize: 0x34 }
  - { offsetInCU: 0x1B306, offset: 0x1B306, size: 0x8, addend: 0x0, symName: __ZNKSt3__112__value_typeINS_12basic_stringIcNS_11char_traitsIcEENS_9allocatorIcEEEENS_3mapIS6_NS_6vectorIdNS4_IdEEEENS_4lessIS6_EENS4_INS_4pairIKS6_SA_EEEEEEE11__get_valueB8ue170006Ev, symObjAddr: 0xDB08, symBinAddr: 0x1000113A4, symSize: 0x14 }
  - { offsetInCU: 0x1B32C, offset: 0x1B32C, size: 0x8, addend: 0x0, symName: __ZNKSt3__112basic_stringIcNS_11char_traitsIcEENS_9allocatorIcEEE7compareB8ue170006ERKS5_, symObjAddr: 0xDB54, symBinAddr: 0x1000113F0, symSize: 0x4C }
  - { offsetInCU: 0x1B363, offset: 0x1B363, size: 0x8, addend: 0x0, symName: __ZNKSt3__112basic_stringIcNS_11char_traitsIcEENS_9allocatorIcEEE7compareINS_17basic_string_viewIcS2_EELi0EEEiRKT_, symObjAddr: 0xDBA0, symBinAddr: 0x10001143C, symSize: 0x12C }
  - { offsetInCU: 0x1B3E6, offset: 0x1B3E6, size: 0x8, addend: 0x0, symName: __ZNKSt3__112basic_stringIcNS_11char_traitsIcEENS_9allocatorIcEEEcvNS_17basic_string_viewIcS2_EEB8ue170006Ev, symObjAddr: 0xDCCC, symBinAddr: 0x100011568, symSize: 0x50 }
  - { offsetInCU: 0x1B40C, offset: 0x1B40C, size: 0x8, addend: 0x0, symName: __ZNKSt3__112basic_stringIcNS_11char_traitsIcEENS_9allocatorIcEEE4sizeB8ue170006Ev, symObjAddr: 0xDD1C, symBinAddr: 0x1000115B8, symSize: 0x54 }
  - { offsetInCU: 0x1B432, offset: 0x1B432, size: 0x8, addend: 0x0, symName: __ZNKSt3__117basic_string_viewIcNS_11char_traitsIcEEE4sizeB8ue170006Ev, symObjAddr: 0xDD70, symBinAddr: 0x10001160C, symSize: 0x18 }
  - { offsetInCU: 0x1B458, offset: 0x1B458, size: 0x8, addend: 0x0, symName: __ZNSt3__111char_traitsIcE7compareB8ue170006EPKcS3_m, symObjAddr: 0xDD88, symBinAddr: 0x100011624, symSize: 0x34 }
  - { offsetInCU: 0x1B497, offset: 0x1B497, size: 0x8, addend: 0x0, symName: __ZNKSt3__112basic_stringIcNS_11char_traitsIcEENS_9allocatorIcEEE4dataB8ue170006Ev, symObjAddr: 0xDDBC, symBinAddr: 0x100011658, symSize: 0x28 }
  - { offsetInCU: 0x1B4BD, offset: 0x1B4BD, size: 0x8, addend: 0x0, symName: __ZNKSt3__117basic_string_viewIcNS_11char_traitsIcEEE4dataB8ue170006Ev, symObjAddr: 0xDDE4, symBinAddr: 0x100011680, symSize: 0x18 }
  - { offsetInCU: 0x1B4E3, offset: 0x1B4E3, size: 0x8, addend: 0x0, symName: __ZNKSt3__112basic_stringIcNS_11char_traitsIcEENS_9allocatorIcEEE9__is_longB8ue170006Ev, symObjAddr: 0xDDFC, symBinAddr: 0x100011698, symSize: 0x38 }
  - { offsetInCU: 0x1B509, offset: 0x1B509, size: 0x8, addend: 0x0, symName: __ZNKSt3__112basic_stringIcNS_11char_traitsIcEENS_9allocatorIcEEE15__get_long_sizeB8ue170006Ev, symObjAddr: 0xDE34, symBinAddr: 0x1000116D0, symSize: 0x28 }
  - { offsetInCU: 0x1B52F, offset: 0x1B52F, size: 0x8, addend: 0x0, symName: __ZNKSt3__112basic_stringIcNS_11char_traitsIcEENS_9allocatorIcEEE16__get_short_sizeB8ue170006Ev, symObjAddr: 0xDE5C, symBinAddr: 0x1000116F8, symSize: 0x34 }
  - { offsetInCU: 0x1B555, offset: 0x1B555, size: 0x8, addend: 0x0, symName: __ZNKSt3__117__compressed_pairINS_12basic_stringIcNS_11char_traitsIcEENS_9allocatorIcEEE5__repES5_E5firstB8ue170006Ev, symObjAddr: 0xDE90, symBinAddr: 0x10001172C, symSize: 0x24 }
  - { offsetInCU: 0x1B57B, offset: 0x1B57B, size: 0x8, addend: 0x0, symName: __ZNKSt3__122__compressed_pair_elemINS_12basic_stringIcNS_11char_traitsIcEENS_9allocatorIcEEE5__repELi0ELb0EE5__getB8ue170006Ev, symObjAddr: 0xDEB4, symBinAddr: 0x100011750, symSize: 0x14 }
  - { offsetInCU: 0x1B5A1, offset: 0x1B5A1, size: 0x8, addend: 0x0, symName: __ZNKSt3__112basic_stringIcNS_11char_traitsIcEENS_9allocatorIcEEE13__get_pointerB8ue170006Ev, symObjAddr: 0xDEDC, symBinAddr: 0x100011778, symSize: 0x54 }
  - { offsetInCU: 0x1B5C7, offset: 0x1B5C7, size: 0x8, addend: 0x0, symName: __ZNKSt3__112basic_stringIcNS_11char_traitsIcEENS_9allocatorIcEEE18__get_long_pointerB8ue170006Ev, symObjAddr: 0xDF30, symBinAddr: 0x1000117CC, symSize: 0x28 }
  - { offsetInCU: 0x1B5ED, offset: 0x1B5ED, size: 0x8, addend: 0x0, symName: __ZNKSt3__112basic_stringIcNS_11char_traitsIcEENS_9allocatorIcEEE19__get_short_pointerB8ue170006Ev, symObjAddr: 0xDF58, symBinAddr: 0x1000117F4, symSize: 0x28 }
  - { offsetInCU: 0x1B613, offset: 0x1B613, size: 0x8, addend: 0x0, symName: __ZNSt3__114pointer_traitsIPKcE10pointer_toB8ue170006ERS1_, symObjAddr: 0xDF80, symBinAddr: 0x10001181C, symSize: 0x14 }
  - { offsetInCU: 0x1B636, offset: 0x1B636, size: 0x8, addend: 0x0, symName: __ZNSt3__117basic_string_viewIcNS_11char_traitsIcEEEC1B8ue170006EPKcm, symObjAddr: 0xDF94, symBinAddr: 0x100011830, symSize: 0x3C }
  - { offsetInCU: 0x1B67E, offset: 0x1B67E, size: 0x8, addend: 0x0, symName: __ZNSt3__117basic_string_viewIcNS_11char_traitsIcEEEC2B8ue170006EPKcm, symObjAddr: 0xDFD0, symBinAddr: 0x10001186C, symSize: 0x2C }
  - { offsetInCU: 0x1B6C6, offset: 0x1B6C6, size: 0x8, addend: 0x0, symName: __ZNSt3__116allocator_traitsINS_9allocatorINS_11__tree_nodeINS_12__value_typeINS_12basic_stringIcNS_11char_traitsIcEENS1_IcEEEENS_3mapIS8_NS_6vectorIdNS1_IdEEEENS_4lessIS8_EENS1_INS_4pairIKS8_SC_EEEEEEEEPvEEEEE8allocateB8ue170006ERSN_m, symObjAddr: 0xDFFC, symBinAddr: 0x100011898, symSize: 0x2C }
  - { offsetInCU: 0x1B6F9, offset: 0x1B6F9, size: 0x8, addend: 0x0, symName: __ZNSt3__122__tree_node_destructorINS_9allocatorINS_11__tree_nodeINS_12__value_typeINS_12basic_stringIcNS_11char_traitsIcEENS1_IcEEEENS_3mapIS8_NS_6vectorIdNS1_IdEEEENS_4lessIS8_EENS1_INS_4pairIKS8_SC_EEEEEEEEPvEEEEEC1B8ue170006ERSN_b, symObjAddr: 0xE028, symBinAddr: 0x1000118C4, symSize: 0x48 }
  - { offsetInCU: 0x1B747, offset: 0x1B747, size: 0x8, addend: 0x0, symName: __ZNSt3__110unique_ptrINS_11__tree_nodeINS_12__value_typeINS_12basic_stringIcNS_11char_traitsIcEENS_9allocatorIcEEEENS_3mapIS8_NS_6vectorIdNS6_IdEEEENS_4lessIS8_EENS6_INS_4pairIKS8_SC_EEEEEEEEPvEENS_22__tree_node_destructorINS6_ISM_EEEEEC1B8ue170006ILb1EvEEPSM_NS_16__dependent_typeINS_27__unique_ptr_deleter_sfinaeISP_EEXT_EE20__good_rval_ref_typeE, symObjAddr: 0xE070, symBinAddr: 0x10001190C, symSize: 0x3C }
  - { offsetInCU: 0x1B798, offset: 0x1B798, size: 0x8, addend: 0x0, symName: __ZNSt3__116allocator_traitsINS_9allocatorINS_11__tree_nodeINS_12__value_typeINS_12basic_stringIcNS_11char_traitsIcEENS1_IcEEEENS_3mapIS8_NS_6vectorIdNS1_IdEEEENS_4lessIS8_EENS1_INS_4pairIKS8_SC_EEEEEEEEPvEEEEE9constructB8ue170006INSF_ISG_SJ_EEJRKNS_21piecewise_construct_tENS_5tupleIJOS8_EEENSU_IJEEEEvEEvRSN_PT_DpOT0_, symObjAddr: 0xE0AC, symBinAddr: 0x100011948, symSize: 0x44 }
  - { offsetInCU: 0x1B817, offset: 0x1B817, size: 0x8, addend: 0x0, symName: __ZNKSt3__110unique_ptrINS_11__tree_nodeINS_12__value_typeINS_12basic_stringIcNS_11char_traitsIcEENS_9allocatorIcEEEENS_3mapIS8_NS_6vectorIdNS6_IdEEEENS_4lessIS8_EENS6_INS_4pairIKS8_SC_EEEEEEEEPvEENS_22__tree_node_destructorINS6_ISM_EEEEEptB8ue170006Ev, symObjAddr: 0xE0F0, symBinAddr: 0x10001198C, symSize: 0x28 }
  - { offsetInCU: 0x1B83D, offset: 0x1B83D, size: 0x8, addend: 0x0, symName: __ZNSt3__110unique_ptrINS_11__tree_nodeINS_12__value_typeINS_12basic_stringIcNS_11char_traitsIcEENS_9allocatorIcEEEENS_3mapIS8_NS_6vectorIdNS6_IdEEEENS_4lessIS8_EENS6_INS_4pairIKS8_SC_EEEEEEEEPvEENS_22__tree_node_destructorINS6_ISM_EEEEE11get_deleterB8ue170006Ev, symObjAddr: 0xE118, symBinAddr: 0x1000119B4, symSize: 0x24 }
  - { offsetInCU: 0x1B863, offset: 0x1B863, size: 0x8, addend: 0x0, symName: __ZNSt3__19allocatorINS_11__tree_nodeINS_12__value_typeINS_12basic_stringIcNS_11char_traitsIcEENS0_IcEEEENS_3mapIS7_NS_6vectorIdNS0_IdEEEENS_4lessIS7_EENS0_INS_4pairIKS7_SB_EEEEEEEEPvEEE8allocateB8ue170006Em, symObjAddr: 0xE13C, symBinAddr: 0x1000119D8, symSize: 0x5C }
  - { offsetInCU: 0x1B8A2, offset: 0x1B8A2, size: 0x8, addend: 0x0, symName: __ZNSt3__116allocator_traitsINS_9allocatorINS_11__tree_nodeINS_12__value_typeINS_12basic_stringIcNS_11char_traitsIcEENS1_IcEEEENS_3mapIS8_NS_6vectorIdNS1_IdEEEENS_4lessIS8_EENS1_INS_4pairIKS8_SC_EEEEEEEEPvEEEEE8max_sizeB8ue170006ISN_vEEmRKSN_, symObjAddr: 0xE198, symBinAddr: 0x100011A34, symSize: 0x24 }
  - { offsetInCU: 0x1B8D0, offset: 0x1B8D0, size: 0x8, addend: 0x0, symName: __ZNKSt3__19allocatorINS_11__tree_nodeINS_12__value_typeINS_12basic_stringIcNS_11char_traitsIcEENS0_IcEEEENS_3mapIS7_NS_6vectorIdNS0_IdEEEENS_4lessIS7_EENS0_INS_4pairIKS7_SB_EEEEEEEEPvEEE8max_sizeB8ue170006Ev, symObjAddr: 0xE1BC, symBinAddr: 0x100011A58, symSize: 0x18 }
  - { offsetInCU: 0x1B8F6, offset: 0x1B8F6, size: 0x8, addend: 0x0, symName: __ZNSt3__122__tree_node_destructorINS_9allocatorINS_11__tree_nodeINS_12__value_typeINS_12basic_stringIcNS_11char_traitsIcEENS1_IcEEEENS_3mapIS8_NS_6vectorIdNS1_IdEEEENS_4lessIS8_EENS1_INS_4pairIKS8_SC_EEEEEEEEPvEEEEEC2B8ue170006ERSN_b, symObjAddr: 0xE1D4, symBinAddr: 0x100011A70, symSize: 0x38 }
  - { offsetInCU: 0x1B93E, offset: 0x1B93E, size: 0x8, addend: 0x0, symName: __ZNSt3__110unique_ptrINS_11__tree_nodeINS_12__value_typeINS_12basic_stringIcNS_11char_traitsIcEENS_9allocatorIcEEEENS_3mapIS8_NS_6vectorIdNS6_IdEEEENS_4lessIS8_EENS6_INS_4pairIKS8_SC_EEEEEEEEPvEENS_22__tree_node_destructorINS6_ISM_EEEEEC2B8ue170006ILb1EvEEPSM_NS_16__dependent_typeINS_27__unique_ptr_deleter_sfinaeISP_EEXT_EE20__good_rval_ref_typeE, symObjAddr: 0xE20C, symBinAddr: 0x100011AA8, symSize: 0x48 }
  - { offsetInCU: 0x1B98F, offset: 0x1B98F, size: 0x8, addend: 0x0, symName: __ZNSt3__117__compressed_pairIPNS_11__tree_nodeINS_12__value_typeINS_12basic_stringIcNS_11char_traitsIcEENS_9allocatorIcEEEENS_3mapIS8_NS_6vectorIdNS6_IdEEEENS_4lessIS8_EENS6_INS_4pairIKS8_SC_EEEEEEEEPvEENS_22__tree_node_destructorINS6_ISM_EEEEEC1B8ue170006IRSN_SQ_EEOT_OT0_, symObjAddr: 0xE254, symBinAddr: 0x100011AF0, symSize: 0x3C }
  - { offsetInCU: 0x1B9E7, offset: 0x1B9E7, size: 0x8, addend: 0x0, symName: __ZNSt3__117__compressed_pairIPNS_11__tree_nodeINS_12__value_typeINS_12basic_stringIcNS_11char_traitsIcEENS_9allocatorIcEEEENS_3mapIS8_NS_6vectorIdNS6_IdEEEENS_4lessIS8_EENS6_INS_4pairIKS8_SC_EEEEEEEEPvEENS_22__tree_node_destructorINS6_ISM_EEEEEC2B8ue170006IRSN_SQ_EEOT_OT0_, symObjAddr: 0xE290, symBinAddr: 0x100011B2C, symSize: 0x48 }
  - { offsetInCU: 0x1BA3F, offset: 0x1BA3F, size: 0x8, addend: 0x0, symName: __ZNSt3__122__compressed_pair_elemIPNS_11__tree_nodeINS_12__value_typeINS_12basic_stringIcNS_11char_traitsIcEENS_9allocatorIcEEEENS_3mapIS8_NS_6vectorIdNS6_IdEEEENS_4lessIS8_EENS6_INS_4pairIKS8_SC_EEEEEEEEPvEELi0ELb0EEC2B8ue170006IRSN_vEEOT_, symObjAddr: 0xE2D8, symBinAddr: 0x100011B74, symSize: 0x24 }
  - { offsetInCU: 0x1BA81, offset: 0x1BA81, size: 0x8, addend: 0x0, symName: __ZNSt3__122__compressed_pair_elemINS_22__tree_node_destructorINS_9allocatorINS_11__tree_nodeINS_12__value_typeINS_12basic_stringIcNS_11char_traitsIcEENS2_IcEEEENS_3mapIS9_NS_6vectorIdNS2_IdEEEENS_4lessIS9_EENS2_INS_4pairIKS9_SD_EEEEEEEEPvEEEEEELi1ELb0EEC2B8ue170006ISP_vEEOT_, symObjAddr: 0xE2FC, symBinAddr: 0x100011B98, symSize: 0x24 }
  - { offsetInCU: 0x1BAC3, offset: 0x1BAC3, size: 0x8, addend: 0x0, symName: __ZNSt3__19allocatorINS_11__tree_nodeINS_12__value_typeINS_12basic_stringIcNS_11char_traitsIcEENS0_IcEEEENS_3mapIS7_NS_6vectorIdNS0_IdEEEENS_4lessIS7_EENS0_INS_4pairIKS7_SB_EEEEEEEEPvEEE9constructB8ue170006INSE_ISF_SI_EEJRKNS_21piecewise_construct_tENS_5tupleIJOS7_EEENSS_IJEEEEEEvPT_DpOT0_, symObjAddr: 0xE320, symBinAddr: 0x100011BBC, symSize: 0x44 }
  - { offsetInCU: 0x1BB3F, offset: 0x1BB3F, size: 0x8, addend: 0x0, symName: __ZNSt3__14pairIKNS_12basic_stringIcNS_11char_traitsIcEENS_9allocatorIcEEEENS_3mapIS6_NS_6vectorIdNS4_IdEEEENS_4lessIS6_EENS4_INS0_IS7_SB_EEEEEEEC1B8ue170006IJOS6_EJEEENS_21piecewise_construct_tENS_5tupleIJDpT_EEENSL_IJDpT0_EEE, symObjAddr: 0xE364, symBinAddr: 0x100011C00, symSize: 0x44 }
  - { offsetInCU: 0x1BBA6, offset: 0x1BBA6, size: 0x8, addend: 0x0, symName: __ZNSt3__14pairIKNS_12basic_stringIcNS_11char_traitsIcEENS_9allocatorIcEEEENS_3mapIS6_NS_6vectorIdNS4_IdEEEENS_4lessIS6_EENS4_INS0_IS7_SB_EEEEEEEC1B8ue170006IJOS6_EJEJLm0EEJEEENS_21piecewise_construct_tERNS_5tupleIJDpT_EEERNSL_IJDpT0_EEENS_15__tuple_indicesIJXspT1_EEEENSU_IJXspT2_EEEE, symObjAddr: 0xE3A8, symBinAddr: 0x100011C44, symSize: 0x3C }
  - { offsetInCU: 0x1BC33, offset: 0x1BC33, size: 0x8, addend: 0x0, symName: __ZNSt3__14pairIKNS_12basic_stringIcNS_11char_traitsIcEENS_9allocatorIcEEEENS_3mapIS6_NS_6vectorIdNS4_IdEEEENS_4lessIS6_EENS4_INS0_IS7_SB_EEEEEEEC2B8ue170006IJOS6_EJEJLm0EEJEEENS_21piecewise_construct_tERNS_5tupleIJDpT_EEERNSL_IJDpT0_EEENS_15__tuple_indicesIJXspT1_EEEENSU_IJXspT2_EEEE, symObjAddr: 0xE3E4, symBinAddr: 0x100011C80, symSize: 0x50 }
  - { offsetInCU: 0x1BCC0, offset: 0x1BCC0, size: 0x8, addend: 0x0, symName: __ZNSt3__112basic_stringIcNS_11char_traitsIcEENS_9allocatorIcEEEC1B8ue170006EOS5_, symObjAddr: 0xE458, symBinAddr: 0x100011CF4, symSize: 0x34 }
  - { offsetInCU: 0x1BCF9, offset: 0x1BCF9, size: 0x8, addend: 0x0, symName: __ZNSt3__13mapINS_12basic_stringIcNS_11char_traitsIcEENS_9allocatorIcEEEENS_6vectorIdNS4_IdEEEENS_4lessIS6_EENS4_INS_4pairIKS6_S9_EEEEEC1B8ue170006Ev, symObjAddr: 0xE48C, symBinAddr: 0x100011D28, symSize: 0x2C }
  - { offsetInCU: 0x1BD23, offset: 0x1BD23, size: 0x8, addend: 0x0, symName: __ZNSt3__112__tuple_leafILm0EONS_12basic_stringIcNS_11char_traitsIcEENS_9allocatorIcEEEELb0EE3getB8ue170006Ev, symObjAddr: 0xE4B8, symBinAddr: 0x100011D54, symSize: 0x18 }
  - { offsetInCU: 0x1BD49, offset: 0x1BD49, size: 0x8, addend: 0x0, symName: __ZNSt3__112basic_stringIcNS_11char_traitsIcEENS_9allocatorIcEEEC2B8ue170006EOS5_, symObjAddr: 0xE4D0, symBinAddr: 0x100011D6C, symSize: 0x50 }
  - { offsetInCU: 0x1BD82, offset: 0x1BD82, size: 0x8, addend: 0x0, symName: __ZNSt3__112basic_stringIcNS_11char_traitsIcEENS_9allocatorIcEEE14__default_initB8ue170006Ev, symObjAddr: 0xE520, symBinAddr: 0x100011DBC, symSize: 0x40 }
  - { offsetInCU: 0x1BDA8, offset: 0x1BDA8, size: 0x8, addend: 0x0, symName: __ZNSt3__117__compressed_pairINS_12basic_stringIcNS_11char_traitsIcEENS_9allocatorIcEEE5__repES5_E5firstB8ue170006Ev, symObjAddr: 0xE560, symBinAddr: 0x100011DFC, symSize: 0x24 }
  - { offsetInCU: 0x1BDCE, offset: 0x1BDCE, size: 0x8, addend: 0x0, symName: __ZNSt3__122__compressed_pair_elemINS_12basic_stringIcNS_11char_traitsIcEENS_9allocatorIcEEE5__repELi0ELb0EE5__getB8ue170006Ev, symObjAddr: 0xE584, symBinAddr: 0x100011E20, symSize: 0x14 }
  - { offsetInCU: 0x1BDF4, offset: 0x1BDF4, size: 0x8, addend: 0x0, symName: __ZNSt3__13mapINS_12basic_stringIcNS_11char_traitsIcEENS_9allocatorIcEEEENS_6vectorIdNS4_IdEEEENS_4lessIS6_EENS4_INS_4pairIKS6_S9_EEEEEC2B8ue170006Ev, symObjAddr: 0xE598, symBinAddr: 0x100011E34, symSize: 0x40 }
  - { offsetInCU: 0x1BE1E, offset: 0x1BE1E, size: 0x8, addend: 0x0, symName: __ZNSt3__119__map_value_compareINS_12basic_stringIcNS_11char_traitsIcEENS_9allocatorIcEEEENS_12__value_typeIS6_NS_6vectorIdNS4_IdEEEEEENS_4lessIS6_EELb1EEC1B8ue170006ESD_, symObjAddr: 0xE5D8, symBinAddr: 0x100011E74, symSize: 0x2C }
  - { offsetInCU: 0x1BE57, offset: 0x1BE57, size: 0x8, addend: 0x0, symName: __ZNSt3__16__treeINS_12__value_typeINS_12basic_stringIcNS_11char_traitsIcEENS_9allocatorIcEEEENS_6vectorIdNS5_IdEEEEEENS_19__map_value_compareIS7_SB_NS_4lessIS7_EELb1EEENS5_ISB_EEEC1ERKSF_, symObjAddr: 0xE604, symBinAddr: 0x100011EA0, symSize: 0x34 }
  - { offsetInCU: 0x1BE92, offset: 0x1BE92, size: 0x8, addend: 0x0, symName: __ZNSt3__119__map_value_compareINS_12basic_stringIcNS_11char_traitsIcEENS_9allocatorIcEEEENS_12__value_typeIS6_NS_6vectorIdNS4_IdEEEEEENS_4lessIS6_EELb1EEC2B8ue170006ESD_, symObjAddr: 0xE638, symBinAddr: 0x100011ED4, symSize: 0x14 }
  - { offsetInCU: 0x1BECB, offset: 0x1BECB, size: 0x8, addend: 0x0, symName: __ZNSt3__16__treeINS_12__value_typeINS_12basic_stringIcNS_11char_traitsIcEENS_9allocatorIcEEEENS_6vectorIdNS5_IdEEEEEENS_19__map_value_compareIS7_SB_NS_4lessIS7_EELb1EEENS5_ISB_EEEC2ERKSF_, symObjAddr: 0xE64C, symBinAddr: 0x100011EE8, symSize: 0x7C }
  - { offsetInCU: 0x1BF06, offset: 0x1BF06, size: 0x8, addend: 0x0, symName: __ZNSt3__117__compressed_pairINS_15__tree_end_nodeIPNS_16__tree_node_baseIPvEEEENS_9allocatorINS_11__tree_nodeINS_12__value_typeINS_12basic_stringIcNS_11char_traitsIcEENS7_IcEEEENS_6vectorIdNS7_IdEEEEEES3_EEEEEC1B8ue170006ILb1EvEEv, symObjAddr: 0xE6C8, symBinAddr: 0x100011F64, symSize: 0x2C }
  - { offsetInCU: 0x1BF3B, offset: 0x1BF3B, size: 0x8, addend: 0x0, symName: __ZNSt3__117__compressed_pairImNS_19__map_value_compareINS_12basic_stringIcNS_11char_traitsIcEENS_9allocatorIcEEEENS_12__value_typeIS7_NS_6vectorIdNS5_IdEEEEEENS_4lessIS7_EELb1EEEEC1B8ue170006IiRKSF_EEOT_OT0_, symObjAddr: 0xE6F4, symBinAddr: 0x100011F90, symSize: 0x3C }
  - { offsetInCU: 0x1BF93, offset: 0x1BF93, size: 0x8, addend: 0x0, symName: __ZNSt3__16__treeINS_12__value_typeINS_12basic_stringIcNS_11char_traitsIcEENS_9allocatorIcEEEENS_6vectorIdNS5_IdEEEEEENS_19__map_value_compareIS7_SB_NS_4lessIS7_EELb1EEENS5_ISB_EEE10__end_nodeB8ue170006Ev, symObjAddr: 0xE730, symBinAddr: 0x100011FCC, symSize: 0x2C }
  - { offsetInCU: 0x1BFB9, offset: 0x1BFB9, size: 0x8, addend: 0x0, symName: __ZNSt3__16__treeINS_12__value_typeINS_12basic_stringIcNS_11char_traitsIcEENS_9allocatorIcEEEENS_6vectorIdNS5_IdEEEEEENS_19__map_value_compareIS7_SB_NS_4lessIS7_EELb1EEENS5_ISB_EEE12__begin_nodeB8ue170006Ev, symObjAddr: 0xE75C, symBinAddr: 0x100011FF8, symSize: 0x14 }
  - { offsetInCU: 0x1BFDF, offset: 0x1BFDF, size: 0x8, addend: 0x0, symName: __ZNSt3__117__compressed_pairINS_15__tree_end_nodeIPNS_16__tree_node_baseIPvEEEENS_9allocatorINS_11__tree_nodeINS_12__value_typeINS_12basic_stringIcNS_11char_traitsIcEENS7_IcEEEENS_6vectorIdNS7_IdEEEEEES3_EEEEEC2B8ue170006ILb1EvEEv, symObjAddr: 0xE770, symBinAddr: 0x10001200C, symSize: 0x34 }
  - { offsetInCU: 0x1C014, offset: 0x1C014, size: 0x8, addend: 0x0, symName: __ZNSt3__122__compressed_pair_elemINS_9allocatorINS_11__tree_nodeINS_12__value_typeINS_12basic_stringIcNS_11char_traitsIcEENS1_IcEEEENS_6vectorIdNS1_IdEEEEEEPvEEEELi1ELb1EEC2B8ue170006ENS_16__value_init_tagE, symObjAddr: 0xE7A4, symBinAddr: 0x100012040, symSize: 0x2C }
  - { offsetInCU: 0x1C048, offset: 0x1C048, size: 0x8, addend: 0x0, symName: __ZNSt3__19allocatorINS_11__tree_nodeINS_12__value_typeINS_12basic_stringIcNS_11char_traitsIcEENS0_IcEEEENS_6vectorIdNS0_IdEEEEEEPvEEEC2B8ue170006Ev, symObjAddr: 0xE7D0, symBinAddr: 0x10001206C, symSize: 0x2C }
  - { offsetInCU: 0x1C072, offset: 0x1C072, size: 0x8, addend: 0x0, symName: __ZNSt3__116__non_trivial_ifILb1ENS_9allocatorINS_11__tree_nodeINS_12__value_typeINS_12basic_stringIcNS_11char_traitsIcEENS1_IcEEEENS_6vectorIdNS1_IdEEEEEEPvEEEEEC2B8ue170006Ev, symObjAddr: 0xE7FC, symBinAddr: 0x100012098, symSize: 0x14 }
  - { offsetInCU: 0x1C09C, offset: 0x1C09C, size: 0x8, addend: 0x0, symName: __ZNSt3__117__compressed_pairImNS_19__map_value_compareINS_12basic_stringIcNS_11char_traitsIcEENS_9allocatorIcEEEENS_12__value_typeIS7_NS_6vectorIdNS5_IdEEEEEENS_4lessIS7_EELb1EEEEC2B8ue170006IiRKSF_EEOT_OT0_, symObjAddr: 0xE810, symBinAddr: 0x1000120AC, symSize: 0x44 }
  - { offsetInCU: 0x1C0F4, offset: 0x1C0F4, size: 0x8, addend: 0x0, symName: __ZNSt3__122__compressed_pair_elemINS_19__map_value_compareINS_12basic_stringIcNS_11char_traitsIcEENS_9allocatorIcEEEENS_12__value_typeIS7_NS_6vectorIdNS5_IdEEEEEENS_4lessIS7_EELb1EEELi1ELb1EEC2B8ue170006IRKSF_vEEOT_, symObjAddr: 0xE854, symBinAddr: 0x1000120F0, symSize: 0x18 }
  - { offsetInCU: 0x1C136, offset: 0x1C136, size: 0x8, addend: 0x0, symName: __ZNSt3__117__compressed_pairINS_15__tree_end_nodeIPNS_16__tree_node_baseIPvEEEENS_9allocatorINS_11__tree_nodeINS_12__value_typeINS_12basic_stringIcNS_11char_traitsIcEENS7_IcEEEENS_6vectorIdNS7_IdEEEEEES3_EEEEE5firstB8ue170006Ev, symObjAddr: 0xE86C, symBinAddr: 0x100012108, symSize: 0x24 }
  - { offsetInCU: 0x1C15C, offset: 0x1C15C, size: 0x8, addend: 0x0, symName: __ZNKSt3__117__compressed_pairIPNS_11__tree_nodeINS_12__value_typeINS_12basic_stringIcNS_11char_traitsIcEENS_9allocatorIcEEEENS_3mapIS8_NS_6vectorIdNS6_IdEEEENS_4lessIS8_EENS6_INS_4pairIKS8_SC_EEEEEEEEPvEENS_22__tree_node_destructorINS6_ISM_EEEEE5firstB8ue170006Ev, symObjAddr: 0xE890, symBinAddr: 0x10001212C, symSize: 0x24 }
  - { offsetInCU: 0x1C182, offset: 0x1C182, size: 0x8, addend: 0x0, symName: __ZNKSt3__122__compressed_pair_elemIPNS_11__tree_nodeINS_12__value_typeINS_12basic_stringIcNS_11char_traitsIcEENS_9allocatorIcEEEENS_3mapIS8_NS_6vectorIdNS6_IdEEEENS_4lessIS8_EENS6_INS_4pairIKS8_SC_EEEEEEEEPvEELi0ELb0EE5__getB8ue170006Ev, symObjAddr: 0xE8B4, symBinAddr: 0x100012150, symSize: 0x14 }
  - { offsetInCU: 0x1C1A8, offset: 0x1C1A8, size: 0x8, addend: 0x0, symName: __ZNSt3__117__compressed_pairIPNS_11__tree_nodeINS_12__value_typeINS_12basic_stringIcNS_11char_traitsIcEENS_9allocatorIcEEEENS_3mapIS8_NS_6vectorIdNS6_IdEEEENS_4lessIS8_EENS6_INS_4pairIKS8_SC_EEEEEEEEPvEENS_22__tree_node_destructorINS6_ISM_EEEEE6secondB8ue170006Ev, symObjAddr: 0xE8C8, symBinAddr: 0x100012164, symSize: 0x28 }
  - { offsetInCU: 0x1C1CE, offset: 0x1C1CE, size: 0x8, addend: 0x0, symName: __ZNSt3__122__compressed_pair_elemINS_22__tree_node_destructorINS_9allocatorINS_11__tree_nodeINS_12__value_typeINS_12basic_stringIcNS_11char_traitsIcEENS2_IcEEEENS_3mapIS9_NS_6vectorIdNS2_IdEEEENS_4lessIS9_EENS2_INS_4pairIKS9_SD_EEEEEEEEPvEEEEEELi1ELb0EE5__getB8ue170006Ev, symObjAddr: 0xE8F0, symBinAddr: 0x10001218C, symSize: 0x14 }
  - { offsetInCU: 0x1C1F4, offset: 0x1C1F4, size: 0x8, addend: 0x0, symName: __ZNSt3__16__treeINS_12__value_typeINS_12basic_stringIcNS_11char_traitsIcEENS_9allocatorIcEEEENS_3mapIS7_NS_6vectorIdNS5_IdEEEENS_4lessIS7_EENS5_INS_4pairIKS7_SB_EEEEEEEENS_19__map_value_compareIS7_SJ_SD_Lb1EEENS5_ISJ_EEE4sizeB8ue170006Ev, symObjAddr: 0xEC30, symBinAddr: 0x1000124CC, symSize: 0x28 }
  - { offsetInCU: 0x1C21A, offset: 0x1C21A, size: 0x8, addend: 0x0, symName: __ZNKSt3__116__tree_node_baseIPvE15__parent_unsafeB8ue170006Ev, symObjAddr: 0xEC58, symBinAddr: 0x1000124F4, symSize: 0x18 }
  - { offsetInCU: 0x1C240, offset: 0x1C240, size: 0x8, addend: 0x0, symName: __ZNSt3__116__tree_node_baseIPvE12__set_parentB8ue170006EPS2_, symObjAddr: 0xEE40, symBinAddr: 0x1000126DC, symSize: 0x20 }
  - { offsetInCU: 0x1C275, offset: 0x1C275, size: 0x8, addend: 0x0, symName: __ZNSt3__117__compressed_pairImNS_19__map_value_compareINS_12basic_stringIcNS_11char_traitsIcEENS_9allocatorIcEEEENS_12__value_typeIS7_NS_3mapIS7_NS_6vectorIdNS5_IdEEEENS_4lessIS7_EENS5_INS_4pairIKS7_SC_EEEEEEEESE_Lb1EEEE5firstB8ue170006Ev, symObjAddr: 0xEE60, symBinAddr: 0x1000126FC, symSize: 0x24 }
  - { offsetInCU: 0x1C29B, offset: 0x1C29B, size: 0x8, addend: 0x0, symName: __ZNSt3__122__compressed_pair_elemImLi0ELb0EE5__getB8ue170006Ev, symObjAddr: 0xEE84, symBinAddr: 0x100012720, symSize: 0x14 }
  - { offsetInCU: 0x1C2C1, offset: 0x1C2C1, size: 0x8, addend: 0x0, symName: __ZNSt3__117__compressed_pairIPNS_11__tree_nodeINS_12__value_typeINS_12basic_stringIcNS_11char_traitsIcEENS_9allocatorIcEEEENS_3mapIS8_NS_6vectorIdNS6_IdEEEENS_4lessIS8_EENS6_INS_4pairIKS8_SC_EEEEEEEEPvEENS_22__tree_node_destructorINS6_ISM_EEEEE5firstB8ue170006Ev, symObjAddr: 0xEE98, symBinAddr: 0x100012734, symSize: 0x24 }
  - { offsetInCU: 0x1C2E7, offset: 0x1C2E7, size: 0x8, addend: 0x0, symName: __ZNSt3__122__compressed_pair_elemIPNS_11__tree_nodeINS_12__value_typeINS_12basic_stringIcNS_11char_traitsIcEENS_9allocatorIcEEEENS_3mapIS8_NS_6vectorIdNS6_IdEEEENS_4lessIS8_EENS6_INS_4pairIKS8_SC_EEEEEEEEPvEELi0ELb0EE5__getB8ue170006Ev, symObjAddr: 0xEEBC, symBinAddr: 0x100012758, symSize: 0x14 }
  - { offsetInCU: 0x1C30D, offset: 0x1C30D, size: 0x8, addend: 0x0, symName: __ZNSt3__110unique_ptrINS_11__tree_nodeINS_12__value_typeINS_12basic_stringIcNS_11char_traitsIcEENS_9allocatorIcEEEENS_3mapIS8_NS_6vectorIdNS6_IdEEEENS_4lessIS8_EENS6_INS_4pairIKS8_SC_EEEEEEEEPvEENS_22__tree_node_destructorINS6_ISM_EEEEED2B8ue170006Ev, symObjAddr: 0xEED0, symBinAddr: 0x10001276C, symSize: 0x30 }
  - { offsetInCU: 0x1C337, offset: 0x1C337, size: 0x8, addend: 0x0, symName: __ZNSt3__110unique_ptrINS_11__tree_nodeINS_12__value_typeINS_12basic_stringIcNS_11char_traitsIcEENS_9allocatorIcEEEENS_3mapIS8_NS_6vectorIdNS6_IdEEEENS_4lessIS8_EENS6_INS_4pairIKS8_SC_EEEEEEEEPvEENS_22__tree_node_destructorINS6_ISM_EEEEE5resetB8ue170006EPSM_, symObjAddr: 0xEF00, symBinAddr: 0x10001279C, symSize: 0x78 }
  - { offsetInCU: 0x1C37B, offset: 0x1C37B, size: 0x8, addend: 0x0, symName: __ZNSt3__122__tree_node_destructorINS_9allocatorINS_11__tree_nodeINS_12__value_typeINS_12basic_stringIcNS_11char_traitsIcEENS1_IcEEEENS_3mapIS8_NS_6vectorIdNS1_IdEEEENS_4lessIS8_EENS1_INS_4pairIKS8_SC_EEEEEEEEPvEEEEEclB8ue170006EPSM_, symObjAddr: 0xEF78, symBinAddr: 0x100012814, symSize: 0x94 }
  - { offsetInCU: 0x1C3B0, offset: 0x1C3B0, size: 0x8, addend: 0x0, symName: __ZNSt3__115__tree_iteratorINS_12__value_typeINS_12basic_stringIcNS_11char_traitsIcEENS_9allocatorIcEEEENS_3mapIS7_NS_6vectorIdNS5_IdEEEENS_4lessIS7_EENS5_INS_4pairIKS7_SB_EEEEEEEEPNS_11__tree_nodeISJ_PvEElEC2B8ue170006ESN_, symObjAddr: 0xF00C, symBinAddr: 0x1000128A8, symSize: 0x20 }
  - { offsetInCU: 0x1C3E9, offset: 0x1C3E9, size: 0x8, addend: 0x0, symName: __ZNSt3__14pairINS_15__tree_iteratorINS_12__value_typeINS_12basic_stringIcNS_11char_traitsIcEENS_9allocatorIcEEEENS_3mapIS8_NS_6vectorIdNS6_IdEEEENS_4lessIS8_EENS6_INS0_IKS8_SC_EEEEEEEEPNS_11__tree_nodeISJ_PvEElEEbEC2B8ue170006ISO_RbLSL_0EEEOT_OT0_, symObjAddr: 0xF02C, symBinAddr: 0x1000128C8, symSize: 0x38 }
  - { offsetInCU: 0x1C447, offset: 0x1C447, size: 0x8, addend: 0x0, symName: __ZNSt3__15tupleIJONS_12basic_stringIcNS_11char_traitsIcEENS_9allocatorIcEEEEEEC1B8ue170006IJS6_ELi0EEEDpOT_, symObjAddr: 0xF064, symBinAddr: 0x100012900, symSize: 0x34 }
  - { offsetInCU: 0x1C491, offset: 0x1C491, size: 0x8, addend: 0x0, symName: __ZNSt3__15tupleIJONS_12basic_stringIcNS_11char_traitsIcEENS_9allocatorIcEEEEEEC2B8ue170006IJS6_ELi0EEEDpOT_, symObjAddr: 0xF098, symBinAddr: 0x100012934, symSize: 0x34 }
  - { offsetInCU: 0x1C4DB, offset: 0x1C4DB, size: 0x8, addend: 0x0, symName: __ZNSt3__112__tuple_implINS_15__tuple_indicesIJLm0EEEEJONS_12basic_stringIcNS_11char_traitsIcEENS_9allocatorIcEEEEEEC1B8ue170006IJLm0EEJS9_EJEJEJS8_EEENS1_IJXspT_EEEENS_13__tuple_typesIJDpT0_EEENS1_IJXspT1_EEEENSD_IJDpT2_EEEDpOT3_, symObjAddr: 0xF0CC, symBinAddr: 0x100012968, symSize: 0x34 }
  - { offsetInCU: 0x1C56C, offset: 0x1C56C, size: 0x8, addend: 0x0, symName: __ZNSt3__112__tuple_implINS_15__tuple_indicesIJLm0EEEEJONS_12basic_stringIcNS_11char_traitsIcEENS_9allocatorIcEEEEEEC2B8ue170006IJLm0EEJS9_EJEJEJS8_EEENS1_IJXspT_EEEENS_13__tuple_typesIJDpT0_EEENS1_IJXspT1_EEEENSD_IJDpT2_EEEDpOT3_, symObjAddr: 0xF100, symBinAddr: 0x10001299C, symSize: 0x34 }
  - { offsetInCU: 0x1C5FD, offset: 0x1C5FD, size: 0x8, addend: 0x0, symName: __ZNSt3__112__tuple_leafILm0EONS_12basic_stringIcNS_11char_traitsIcEENS_9allocatorIcEEEELb0EEC2B8ue170006IS6_vEEOT_, symObjAddr: 0xF134, symBinAddr: 0x1000129D0, symSize: 0x20 }
  - { offsetInCU: 0x1C640, offset: 0x1C640, size: 0x8, addend: 0x0, symName: __ZNSt3__114pointer_traitsIPNS_12__value_typeINS_12basic_stringIcNS_11char_traitsIcEENS_9allocatorIcEEEENS_3mapIS7_NS_6vectorIdNS5_IdEEEENS_4lessIS7_EENS5_INS_4pairIKS7_SB_EEEEEEEEE10pointer_toB8ue170006ERSJ_, symObjAddr: 0xF154, symBinAddr: 0x1000129F0, symSize: 0x14 }
  - { offsetInCU: 0x1C663, offset: 0x1C663, size: 0x8, addend: 0x0, symName: __ZNKSt3__115__tree_iteratorINS_12__value_typeINS_12basic_stringIcNS_11char_traitsIcEENS_9allocatorIcEEEENS_3mapIS7_NS_6vectorIdNS5_IdEEEENS_4lessIS7_EENS5_INS_4pairIKS7_SB_EEEEEEEEPNS_11__tree_nodeISJ_PvEElE8__get_npB8ue170006Ev, symObjAddr: 0xF168, symBinAddr: 0x100012A04, symSize: 0x18 }
  - { offsetInCU: 0x1C689, offset: 0x1C689, size: 0x8, addend: 0x0, symName: __ZNSt3__16vectorIdNS_9allocatorIdEEEC2B8ue170006ESt16initializer_listIdE, symObjAddr: 0xF180, symBinAddr: 0x100012A1C, symSize: 0x120 }
  - { offsetInCU: 0x1C6D9, offset: 0x1C6D9, size: 0x8, addend: 0x0, symName: __ZNKSt16initializer_listIdE4sizeB8ue170006Ev, symObjAddr: 0xF2A0, symBinAddr: 0x100012B3C, symSize: 0x18 }
  - { offsetInCU: 0x1C6FF, offset: 0x1C6FF, size: 0x8, addend: 0x0, symName: __ZNSt3__16vectorIdNS_9allocatorIdEEE18__construct_at_endIPKdS6_EEvT_T0_m, symObjAddr: 0xF2B8, symBinAddr: 0x100012B54, symSize: 0x8C }
  - { offsetInCU: 0x1C775, offset: 0x1C775, size: 0x8, addend: 0x0, symName: __ZNKSt16initializer_listIdE5beginB8ue170006Ev, symObjAddr: 0xF344, symBinAddr: 0x100012BE0, symSize: 0x18 }
  - { offsetInCU: 0x1C79B, offset: 0x1C79B, size: 0x8, addend: 0x0, symName: __ZNKSt16initializer_listIdE3endB8ue170006Ev, symObjAddr: 0xF35C, symBinAddr: 0x100012BF8, symSize: 0x20 }
  - { offsetInCU: 0x1C7E3, offset: 0x1C7E3, size: 0x8, addend: 0x0, symName: __ZNSt3__14pairIPKdS2_EC1B8ue170006IS2_S2_LPv0EEEOT_OT0_, symObjAddr: 0xF4F0, symBinAddr: 0x100012D8C, symSize: 0x3C }
  - { offsetInCU: 0x1C841, offset: 0x1C841, size: 0x8, addend: 0x0, symName: __ZNSt3__14pairIPKdS2_EC2B8ue170006IS2_S2_LPv0EEEOT_OT0_, symObjAddr: 0xF52C, symBinAddr: 0x100012DC8, symSize: 0x34 }
  - { offsetInCU: 0x1C89F, offset: 0x1C89F, size: 0x8, addend: 0x0, symName: __ZNSt3__118__unwrap_iter_implIPKdLb1EE8__unwrapB8ue170006ES2_, symObjAddr: 0xF560, symBinAddr: 0x100012DFC, symSize: 0x24 }
  - { offsetInCU: 0x1C8DE, offset: 0x1C8DE, size: 0x8, addend: 0x0, symName: __ZNKSt3__114__copy_trivialclB8ue170006IKddLi0EEENS_4pairIPT_PT0_EES5_S5_S7_, symObjAddr: 0xF714, symBinAddr: 0x100012FB0, symSize: 0x48 }
  - { offsetInCU: 0x1C94C, offset: 0x1C94C, size: 0x8, addend: 0x0, symName: __ZNSt3__14pairIPKdPdEC1B8ue170006IRS2_S3_LPv0EEEOT_OT0_, symObjAddr: 0xF8DC, symBinAddr: 0x100013178, symSize: 0x3C }
  - { offsetInCU: 0x1C9AA, offset: 0x1C9AA, size: 0x8, addend: 0x0, symName: __ZNSt3__14pairIPKdPdEC2B8ue170006IRS2_S3_LPv0EEEOT_OT0_, symObjAddr: 0xF918, symBinAddr: 0x1000131B4, symSize: 0x34 }
  - { offsetInCU: 0x1CA08, offset: 0x1CA08, size: 0x8, addend: 0x0, symName: __ZNSt3__14pairIPKdPdEC1B8ue170006IS2_S3_LPv0EEEOT_OT0_, symObjAddr: 0xF94C, symBinAddr: 0x1000131E8, symSize: 0x3C }
  - { offsetInCU: 0x1CA66, offset: 0x1CA66, size: 0x8, addend: 0x0, symName: __ZNSt3__14pairIPKdPdEC2B8ue170006IS2_S3_LPv0EEEOT_OT0_, symObjAddr: 0xF988, symBinAddr: 0x100013224, symSize: 0x34 }
  - { offsetInCU: 0x1CAC4, offset: 0x1CAC4, size: 0x8, addend: 0x0, symName: __ZNSt3__118__unwrap_iter_implIPKdLb1EE8__rewrapB8ue170006ES2_S2_, symObjAddr: 0xF9F8, symBinAddr: 0x100013294, symSize: 0x50 }
  - { offsetInCU: 0x1CAF5, offset: 0x1CAF5, size: 0x8, addend: 0x0, symName: __ZNSt3__14pairIKNS_12basic_stringIcNS_11char_traitsIcEENS_9allocatorIcEEEENS_6vectorIdNS4_IdEEEEEC2B8ue170006ILb1ELPv0EEERS7_RKSA_, symObjAddr: 0xFA48, symBinAddr: 0x1000132E4, symSize: 0x70 }
  - { offsetInCU: 0x1CB4B, offset: 0x1CB4B, size: 0x8, addend: 0x0, symName: __ZNSt3__16__treeINS_12__value_typeINS_12basic_stringIcNS_11char_traitsIcEENS_9allocatorIcEEEENS_6vectorIdNS5_IdEEEEEENS_19__map_value_compareIS7_SB_NS_4lessIS7_EELb1EEENS5_ISB_EEE15__assign_uniqueIPKNS_4pairIKS7_SA_EEEEvT_SO_, symObjAddr: 0xFAB8, symBinAddr: 0x100013354, symSize: 0x170 }
  - { offsetInCU: 0x1CBAF, offset: 0x1CBAF, size: 0x8, addend: 0x0, symName: __ZNKSt16initializer_listINSt3__14pairIKNS0_12basic_stringIcNS0_11char_traitsIcEENS0_9allocatorIcEEEENS0_6vectorIdNS5_IdEEEEEEE5beginB8ue170006Ev, symObjAddr: 0xFC28, symBinAddr: 0x1000134C4, symSize: 0x18 }
  - { offsetInCU: 0x1CBD5, offset: 0x1CBD5, size: 0x8, addend: 0x0, symName: __ZNKSt16initializer_listINSt3__14pairIKNS0_12basic_stringIcNS0_11char_traitsIcEENS0_9allocatorIcEEEENS0_6vectorIdNS5_IdEEEEEEE3endB8ue170006Ev, symObjAddr: 0xFC40, symBinAddr: 0x1000134DC, symSize: 0x28 }
  - { offsetInCU: 0x1CBFB, offset: 0x1CBFB, size: 0x8, addend: 0x0, symName: __ZNSt3__16__treeINS_12__value_typeINS_12basic_stringIcNS_11char_traitsIcEENS_9allocatorIcEEEENS_6vectorIdNS5_IdEEEEEENS_19__map_value_compareIS7_SB_NS_4lessIS7_EELb1EEENS5_ISB_EEE4sizeB8ue170006Ev, symObjAddr: 0xFC68, symBinAddr: 0x100013504, symSize: 0x28 }
  - { offsetInCU: 0x1CC41, offset: 0x1CC41, size: 0x8, addend: 0x0, symName: __ZNSt3__16__treeINS_12__value_typeINS_12basic_stringIcNS_11char_traitsIcEENS_9allocatorIcEEEENS_6vectorIdNS5_IdEEEEEENS_19__map_value_compareIS7_SB_NS_4lessIS7_EELb1EEENS5_ISB_EEE18_DetachedTreeCacheC1B8ue170006EPSH_, symObjAddr: 0xFC90, symBinAddr: 0x10001352C, symSize: 0x34 }
  - { offsetInCU: 0x1CC7A, offset: 0x1CC7A, size: 0x8, addend: 0x0, symName: __ZNKSt3__16__treeINS_12__value_typeINS_12basic_stringIcNS_11char_traitsIcEENS_9allocatorIcEEEENS_6vectorIdNS5_IdEEEEEENS_19__map_value_compareIS7_SB_NS_4lessIS7_EELb1EEENS5_ISB_EEE18_DetachedTreeCache5__getB8ue170006Ev, symObjAddr: 0xFCC4, symBinAddr: 0x100013560, symSize: 0x18 }
  - { offsetInCU: 0x1CCA0, offset: 0x1CCA0, size: 0x8, addend: 0x0, symName: __ZNSt3__16__treeINS_12__value_typeINS_12basic_stringIcNS_11char_traitsIcEENS_9allocatorIcEEEENS_6vectorIdNS5_IdEEEEEENS_19__map_value_compareIS7_SB_NS_4lessIS7_EELb1EEENS5_ISB_EEE20__node_assign_uniqueERKNS_4pairIKS7_SA_EEPNS_11__tree_nodeISB_PvEE, symObjAddr: 0xFCDC, symBinAddr: 0x100013578, symSize: 0xD0 }
  - { offsetInCU: 0x1CD22, offset: 0x1CD22, size: 0x8, addend: 0x0, symName: __ZNSt3__16__treeINS_12__value_typeINS_12basic_stringIcNS_11char_traitsIcEENS_9allocatorIcEEEENS_6vectorIdNS5_IdEEEEEENS_19__map_value_compareIS7_SB_NS_4lessIS7_EELb1EEENS5_ISB_EEE18_DetachedTreeCache9__advanceB8ue170006Ev, symObjAddr: 0xFDAC, symBinAddr: 0x100013648, symSize: 0x58 }
  - { offsetInCU: 0x1CD48, offset: 0x1CD48, size: 0x8, addend: 0x0, symName: __ZNSt3__16__treeINS_12__value_typeINS_12basic_stringIcNS_11char_traitsIcEENS_9allocatorIcEEEENS_6vectorIdNS5_IdEEEEEENS_19__map_value_compareIS7_SB_NS_4lessIS7_EELb1EEENS5_ISB_EEE18_DetachedTreeCacheD1B8ue170006Ev, symObjAddr: 0xFE04, symBinAddr: 0x1000136A0, symSize: 0x2C }
  - { offsetInCU: 0x1CD72, offset: 0x1CD72, size: 0x8, addend: 0x0, symName: __ZNSt3__16__treeINS_12__value_typeINS_12basic_stringIcNS_11char_traitsIcEENS_9allocatorIcEEEENS_6vectorIdNS5_IdEEEEEENS_19__map_value_compareIS7_SB_NS_4lessIS7_EELb1EEENS5_ISB_EEE15__insert_uniqueB8ue170006ERKNS_4pairIKS7_SA_EE, symObjAddr: 0xFE30, symBinAddr: 0x1000136CC, symSize: 0x50 }
  - { offsetInCU: 0x1CDA7, offset: 0x1CDA7, size: 0x8, addend: 0x0, symName: __ZNSt3__117__compressed_pairImNS_19__map_value_compareINS_12basic_stringIcNS_11char_traitsIcEENS_9allocatorIcEEEENS_12__value_typeIS7_NS_6vectorIdNS5_IdEEEEEENS_4lessIS7_EELb1EEEE5firstB8ue170006Ev, symObjAddr: 0xFE80, symBinAddr: 0x10001371C, symSize: 0x24 }
  - { offsetInCU: 0x1CDCD, offset: 0x1CDCD, size: 0x8, addend: 0x0, symName: __ZNSt3__16__treeINS_12__value_typeINS_12basic_stringIcNS_11char_traitsIcEENS_9allocatorIcEEEENS_6vectorIdNS5_IdEEEEEENS_19__map_value_compareIS7_SB_NS_4lessIS7_EELb1EEENS5_ISB_EEE18_DetachedTreeCacheC2B8ue170006EPSH_, symObjAddr: 0xFEA4, symBinAddr: 0x100013740, symSize: 0x4C }
  - { offsetInCU: 0x1CE06, offset: 0x1CE06, size: 0x8, addend: 0x0, symName: __ZNSt3__16__treeINS_12__value_typeINS_12basic_stringIcNS_11char_traitsIcEENS_9allocatorIcEEEENS_6vectorIdNS5_IdEEEEEENS_19__map_value_compareIS7_SB_NS_4lessIS7_EELb1EEENS5_ISB_EEE18_DetachedTreeCache18__detach_from_treeEPSH_, symObjAddr: 0xFEF0, symBinAddr: 0x10001378C, symSize: 0xA0 }
  - { offsetInCU: 0x1CE3B, offset: 0x1CE3B, size: 0x8, addend: 0x0, symName: __ZNSt3__16__treeINS_12__value_typeINS_12basic_stringIcNS_11char_traitsIcEENS_9allocatorIcEEEENS_6vectorIdNS5_IdEEEEEENS_19__map_value_compareIS7_SB_NS_4lessIS7_EELb1EEENS5_ISB_EEE12__find_equalIS7_EERPNS_16__tree_node_baseIPvEERPNS_15__tree_end_nodeISM_EERKT_, symObjAddr: 0xFF90, symBinAddr: 0x10001382C, symSize: 0x184 }
  - { offsetInCU: 0x1CEA8, offset: 0x1CEA8, size: 0x8, addend: 0x0, symName: __ZNSt3__122__tree_key_value_typesINS_12__value_typeINS_12basic_stringIcNS_11char_traitsIcEENS_9allocatorIcEEEENS_6vectorIdNS5_IdEEEEEEE9__get_keyB8ue170006IKNS_4pairIKS7_SA_EEEENS_9enable_ifIXsr17__is_same_uncvrefIT_SG_EE5valueERSF_E4typeERSJ_, symObjAddr: 0x10114, symBinAddr: 0x1000139B0, symSize: 0x14 }
  - { offsetInCU: 0x1CED5, offset: 0x1CED5, size: 0x8, addend: 0x0, symName: __ZNSt3__112__value_typeINS_12basic_stringIcNS_11char_traitsIcEENS_9allocatorIcEEEENS_6vectorIdNS4_IdEEEEEaSB8ue170006IRKNS_4pairIKS6_S9_EEvEERSA_OT_, symObjAddr: 0x10128, symBinAddr: 0x1000139C4, symSize: 0x54 }
  - { offsetInCU: 0x1CF14, offset: 0x1CF14, size: 0x8, addend: 0x0, symName: __ZNSt3__16__treeINS_12__value_typeINS_12basic_stringIcNS_11char_traitsIcEENS_9allocatorIcEEEENS_6vectorIdNS5_IdEEEEEENS_19__map_value_compareIS7_SB_NS_4lessIS7_EELb1EEENS5_ISB_EEE16__insert_node_atEPNS_15__tree_end_nodeIPNS_16__tree_node_baseIPvEEEERSM_SM_, symObjAddr: 0x1017C, symBinAddr: 0x100013A18, symSize: 0xCC }
  - { offsetInCU: 0x1CF69, offset: 0x1CF69, size: 0x8, addend: 0x0, symName: __ZNSt3__115__tree_iteratorINS_12__value_typeINS_12basic_stringIcNS_11char_traitsIcEENS_9allocatorIcEEEENS_6vectorIdNS5_IdEEEEEEPNS_11__tree_nodeISB_PvEElEC1B8ue170006ESF_, symObjAddr: 0x10248, symBinAddr: 0x100013AE4, symSize: 0x34 }
  - { offsetInCU: 0x1CFA8, offset: 0x1CFA8, size: 0x8, addend: 0x0, symName: __ZNSt3__14pairINS_15__tree_iteratorINS_12__value_typeINS_12basic_stringIcNS_11char_traitsIcEENS_9allocatorIcEEEENS_6vectorIdNS6_IdEEEEEEPNS_11__tree_nodeISC_PvEElEEbEC1B8ue170006ISH_RbLSE_0EEEOT_OT0_, symObjAddr: 0x1027C, symBinAddr: 0x100013B18, symSize: 0x3C }
  - { offsetInCU: 0x1D006, offset: 0x1D006, size: 0x8, addend: 0x0, symName: __ZNKSt3__16__treeINS_12__value_typeINS_12basic_stringIcNS_11char_traitsIcEENS_9allocatorIcEEEENS_6vectorIdNS5_IdEEEEEENS_19__map_value_compareIS7_SB_NS_4lessIS7_EELb1EEENS5_ISB_EEE10__root_ptrB8ue170006Ev, symObjAddr: 0x102B8, symBinAddr: 0x100013B54, symSize: 0x24 }
  - { offsetInCU: 0x1D02C, offset: 0x1D02C, size: 0x8, addend: 0x0, symName: __ZNSt3__16__treeINS_12__value_typeINS_12basic_stringIcNS_11char_traitsIcEENS_9allocatorIcEEEENS_6vectorIdNS5_IdEEEEEENS_19__map_value_compareIS7_SB_NS_4lessIS7_EELb1EEENS5_ISB_EEE10value_compB8ue170006Ev, symObjAddr: 0x102DC, symBinAddr: 0x100013B78, symSize: 0x28 }
  - { offsetInCU: 0x1D052, offset: 0x1D052, size: 0x8, addend: 0x0, symName: __ZNKSt3__119__map_value_compareINS_12basic_stringIcNS_11char_traitsIcEENS_9allocatorIcEEEENS_12__value_typeIS6_NS_6vectorIdNS4_IdEEEEEENS_4lessIS6_EELb1EEclB8ue170006ERKS6_RKSB_, symObjAddr: 0x10304, symBinAddr: 0x100013BA0, symSize: 0x50 }
  - { offsetInCU: 0x1D096, offset: 0x1D096, size: 0x8, addend: 0x0, symName: __ZNKSt3__119__map_value_compareINS_12basic_stringIcNS_11char_traitsIcEENS_9allocatorIcEEEENS_12__value_typeIS6_NS_6vectorIdNS4_IdEEEEEENS_4lessIS6_EELb1EEclB8ue170006ERKSB_RKS6_, symObjAddr: 0x10354, symBinAddr: 0x100013BF0, symSize: 0x48 }
  - { offsetInCU: 0x1D0DA, offset: 0x1D0DA, size: 0x8, addend: 0x0, symName: __ZNSt3__117__compressed_pairImNS_19__map_value_compareINS_12basic_stringIcNS_11char_traitsIcEENS_9allocatorIcEEEENS_12__value_typeIS7_NS_6vectorIdNS5_IdEEEEEENS_4lessIS7_EELb1EEEE6secondB8ue170006Ev, symObjAddr: 0x1039C, symBinAddr: 0x100013C38, symSize: 0x24 }
  - { offsetInCU: 0x1D100, offset: 0x1D100, size: 0x8, addend: 0x0, symName: __ZNSt3__122__compressed_pair_elemINS_19__map_value_compareINS_12basic_stringIcNS_11char_traitsIcEENS_9allocatorIcEEEENS_12__value_typeIS7_NS_6vectorIdNS5_IdEEEEEENS_4lessIS7_EELb1EEELi1ELb1EE5__getB8ue170006Ev, symObjAddr: 0x103C0, symBinAddr: 0x100013C5C, symSize: 0x14 }
  - { offsetInCU: 0x1D126, offset: 0x1D126, size: 0x8, addend: 0x0, symName: __ZNKSt3__112__value_typeINS_12basic_stringIcNS_11char_traitsIcEENS_9allocatorIcEEEENS_6vectorIdNS4_IdEEEEE11__get_valueB8ue170006Ev, symObjAddr: 0x103D4, symBinAddr: 0x100013C70, symSize: 0x14 }
  - { offsetInCU: 0x1D14C, offset: 0x1D14C, size: 0x8, addend: 0x0, symName: __ZNSt3__112__value_typeINS_12basic_stringIcNS_11char_traitsIcEENS_9allocatorIcEEEENS_6vectorIdNS4_IdEEEEE5__refB8ue170006Ev, symObjAddr: 0x103E8, symBinAddr: 0x100013C84, symSize: 0x44 }
  - { offsetInCU: 0x1D181, offset: 0x1D181, size: 0x8, addend: 0x0, symName: __ZNSt3__14pairIRNS_12basic_stringIcNS_11char_traitsIcEENS_9allocatorIcEEEERNS_6vectorIdNS4_IdEEEEEaSB8ue170006IKS6_SA_LPv0EEERSC_RKNS0_IT_T0_EE, symObjAddr: 0x1042C, symBinAddr: 0x100013CC8, symSize: 0x4C }
  - { offsetInCU: 0x1D1CE, offset: 0x1D1CE, size: 0x8, addend: 0x0, symName: __ZNSt3__14pairIRNS_12basic_stringIcNS_11char_traitsIcEENS_9allocatorIcEEEERNS_6vectorIdNS4_IdEEEEEC1B8ue170006ILb1ELPv0EEES7_SB_, symObjAddr: 0x10478, symBinAddr: 0x100013D14, symSize: 0x3C }
  - { offsetInCU: 0x1D224, offset: 0x1D224, size: 0x8, addend: 0x0, symName: __ZNSt3__14pairIRNS_12basic_stringIcNS_11char_traitsIcEENS_9allocatorIcEEEERNS_6vectorIdNS4_IdEEEEEC2B8ue170006ILb1ELPv0EEES7_SB_, symObjAddr: 0x104B4, symBinAddr: 0x100013D50, symSize: 0x2C }
  - { offsetInCU: 0x1D27A, offset: 0x1D27A, size: 0x8, addend: 0x0, symName: __ZNSt3__115__tree_iteratorINS_12__value_typeINS_12basic_stringIcNS_11char_traitsIcEENS_9allocatorIcEEEENS_6vectorIdNS5_IdEEEEEEPNS_11__tree_nodeISB_PvEElEC2B8ue170006ESF_, symObjAddr: 0x104E0, symBinAddr: 0x100013D7C, symSize: 0x20 }
  - { offsetInCU: 0x1D2B3, offset: 0x1D2B3, size: 0x8, addend: 0x0, symName: __ZNSt3__14pairINS_15__tree_iteratorINS_12__value_typeINS_12basic_stringIcNS_11char_traitsIcEENS_9allocatorIcEEEENS_6vectorIdNS6_IdEEEEEEPNS_11__tree_nodeISC_PvEElEEbEC2B8ue170006ISH_RbLSE_0EEEOT_OT0_, symObjAddr: 0x10500, symBinAddr: 0x100013D9C, symSize: 0x38 }
  - { offsetInCU: 0x1D311, offset: 0x1D311, size: 0x8, addend: 0x0, symName: __ZNSt3__16__treeINS_12__value_typeINS_12basic_stringIcNS_11char_traitsIcEENS_9allocatorIcEEEENS_6vectorIdNS5_IdEEEEEENS_19__map_value_compareIS7_SB_NS_4lessIS7_EELb1EEENS5_ISB_EEE18_DetachedTreeCache13__detach_nextEPNS_11__tree_nodeISB_PvEE, symObjAddr: 0x10538, symBinAddr: 0x100013DD4, symSize: 0xF0 }
  - { offsetInCU: 0x1D337, offset: 0x1D337, size: 0x8, addend: 0x0, symName: __ZNSt3__16__treeINS_12__value_typeINS_12basic_stringIcNS_11char_traitsIcEENS_9allocatorIcEEEENS_6vectorIdNS5_IdEEEEEENS_19__map_value_compareIS7_SB_NS_4lessIS7_EELb1EEENS5_ISB_EEE18_DetachedTreeCacheD2B8ue170006Ev, symObjAddr: 0x10698, symBinAddr: 0x100013F34, symSize: 0x9C }
  - { offsetInCU: 0x1D361, offset: 0x1D361, size: 0x8, addend: 0x0, symName: __ZNSt3__16__treeINS_12__value_typeINS_12basic_stringIcNS_11char_traitsIcEENS_9allocatorIcEEEENS_6vectorIdNS5_IdEEEEEENS_19__map_value_compareIS7_SB_NS_4lessIS7_EELb1EEENS5_ISB_EEE25__emplace_unique_key_argsIS7_JRKNS_4pairIKS7_SA_EEEEENSJ_INS_15__tree_iteratorISB_PNS_11__tree_nodeISB_PvEElEEbEERKT_DpOT0_, symObjAddr: 0x10734, symBinAddr: 0x100013FD0, symSize: 0xF0 }
  - { offsetInCU: 0x1D40D, offset: 0x1D40D, size: 0x8, addend: 0x0, symName: __ZNSt3__16__treeINS_12__value_typeINS_12basic_stringIcNS_11char_traitsIcEENS_9allocatorIcEEEENS_6vectorIdNS5_IdEEEEEENS_19__map_value_compareIS7_SB_NS_4lessIS7_EELb1EEENS5_ISB_EEE16__construct_nodeIJRKNS_4pairIKS7_SA_EEEEENS_10unique_ptrINS_11__tree_nodeISB_PvEENS_22__tree_node_destructorINS5_ISR_EEEEEEDpOT_, symObjAddr: 0x10824, symBinAddr: 0x1000140C0, symSize: 0x110 }
  - { offsetInCU: 0x1D46E, offset: 0x1D46E, size: 0x8, addend: 0x0, symName: __ZNKSt3__110unique_ptrINS_11__tree_nodeINS_12__value_typeINS_12basic_stringIcNS_11char_traitsIcEENS_9allocatorIcEEEENS_6vectorIdNS6_IdEEEEEEPvEENS_22__tree_node_destructorINS6_ISE_EEEEE3getB8ue170006Ev, symObjAddr: 0x10934, symBinAddr: 0x1000141D0, symSize: 0x28 }
  - { offsetInCU: 0x1D494, offset: 0x1D494, size: 0x8, addend: 0x0, symName: __ZNSt3__110unique_ptrINS_11__tree_nodeINS_12__value_typeINS_12basic_stringIcNS_11char_traitsIcEENS_9allocatorIcEEEENS_6vectorIdNS6_IdEEEEEEPvEENS_22__tree_node_destructorINS6_ISE_EEEEE7releaseB8ue170006Ev, symObjAddr: 0x1095C, symBinAddr: 0x1000141F8, symSize: 0x44 }
  - { offsetInCU: 0x1D4C9, offset: 0x1D4C9, size: 0x8, addend: 0x0, symName: __ZNSt3__110unique_ptrINS_11__tree_nodeINS_12__value_typeINS_12basic_stringIcNS_11char_traitsIcEENS_9allocatorIcEEEENS_6vectorIdNS6_IdEEEEEEPvEENS_22__tree_node_destructorINS6_ISE_EEEEED1B8ue170006Ev, symObjAddr: 0x109A0, symBinAddr: 0x10001423C, symSize: 0x2C }
  - { offsetInCU: 0x1D4F3, offset: 0x1D4F3, size: 0x8, addend: 0x0, symName: __ZNSt3__116allocator_traitsINS_9allocatorINS_11__tree_nodeINS_12__value_typeINS_12basic_stringIcNS_11char_traitsIcEENS1_IcEEEENS_6vectorIdNS1_IdEEEEEEPvEEEEE8allocateB8ue170006ERSF_m, symObjAddr: 0x109CC, symBinAddr: 0x100014268, symSize: 0x2C }
  - { offsetInCU: 0x1D526, offset: 0x1D526, size: 0x8, addend: 0x0, symName: __ZNSt3__122__tree_node_destructorINS_9allocatorINS_11__tree_nodeINS_12__value_typeINS_12basic_stringIcNS_11char_traitsIcEENS1_IcEEEENS_6vectorIdNS1_IdEEEEEEPvEEEEEC1B8ue170006ERSF_b, symObjAddr: 0x109F8, symBinAddr: 0x100014294, symSize: 0x48 }
  - { offsetInCU: 0x1D574, offset: 0x1D574, size: 0x8, addend: 0x0, symName: __ZNSt3__110unique_ptrINS_11__tree_nodeINS_12__value_typeINS_12basic_stringIcNS_11char_traitsIcEENS_9allocatorIcEEEENS_6vectorIdNS6_IdEEEEEEPvEENS_22__tree_node_destructorINS6_ISE_EEEEEC1B8ue170006ILb1EvEEPSE_NS_16__dependent_typeINS_27__unique_ptr_deleter_sfinaeISH_EEXT_EE20__good_rval_ref_typeE, symObjAddr: 0x10A40, symBinAddr: 0x1000142DC, symSize: 0x3C }
  - { offsetInCU: 0x1D5C5, offset: 0x1D5C5, size: 0x8, addend: 0x0, symName: __ZNSt3__116allocator_traitsINS_9allocatorINS_11__tree_nodeINS_12__value_typeINS_12basic_stringIcNS_11char_traitsIcEENS1_IcEEEENS_6vectorIdNS1_IdEEEEEEPvEEEEE9constructB8ue170006INS_4pairIKS8_SB_EEJRKSK_EvEEvRSF_PT_DpOT0_, symObjAddr: 0x10A7C, symBinAddr: 0x100014318, symSize: 0x34 }
  - { offsetInCU: 0x1D61C, offset: 0x1D61C, size: 0x8, addend: 0x0, symName: __ZNKSt3__110unique_ptrINS_11__tree_nodeINS_12__value_typeINS_12basic_stringIcNS_11char_traitsIcEENS_9allocatorIcEEEENS_6vectorIdNS6_IdEEEEEEPvEENS_22__tree_node_destructorINS6_ISE_EEEEEptB8ue170006Ev, symObjAddr: 0x10AB0, symBinAddr: 0x10001434C, symSize: 0x28 }
  - { offsetInCU: 0x1D642, offset: 0x1D642, size: 0x8, addend: 0x0, symName: __ZNSt3__110unique_ptrINS_11__tree_nodeINS_12__value_typeINS_12basic_stringIcNS_11char_traitsIcEENS_9allocatorIcEEEENS_6vectorIdNS6_IdEEEEEEPvEENS_22__tree_node_destructorINS6_ISE_EEEEE11get_deleterB8ue170006Ev, symObjAddr: 0x10AD8, symBinAddr: 0x100014374, symSize: 0x24 }
  - { offsetInCU: 0x1D668, offset: 0x1D668, size: 0x8, addend: 0x0, symName: __ZNSt3__19allocatorINS_11__tree_nodeINS_12__value_typeINS_12basic_stringIcNS_11char_traitsIcEENS0_IcEEEENS_6vectorIdNS0_IdEEEEEEPvEEE8allocateB8ue170006Em, symObjAddr: 0x10AFC, symBinAddr: 0x100014398, symSize: 0x5C }
  - { offsetInCU: 0x1D6A7, offset: 0x1D6A7, size: 0x8, addend: 0x0, symName: __ZNSt3__116allocator_traitsINS_9allocatorINS_11__tree_nodeINS_12__value_typeINS_12basic_stringIcNS_11char_traitsIcEENS1_IcEEEENS_6vectorIdNS1_IdEEEEEEPvEEEEE8max_sizeB8ue170006ISF_vEEmRKSF_, symObjAddr: 0x10B58, symBinAddr: 0x1000143F4, symSize: 0x24 }
  - { offsetInCU: 0x1D6D5, offset: 0x1D6D5, size: 0x8, addend: 0x0, symName: __ZNKSt3__19allocatorINS_11__tree_nodeINS_12__value_typeINS_12basic_stringIcNS_11char_traitsIcEENS0_IcEEEENS_6vectorIdNS0_IdEEEEEEPvEEE8max_sizeB8ue170006Ev, symObjAddr: 0x10B7C, symBinAddr: 0x100014418, symSize: 0x18 }
  - { offsetInCU: 0x1D6FB, offset: 0x1D6FB, size: 0x8, addend: 0x0, symName: __ZNSt3__122__tree_node_destructorINS_9allocatorINS_11__tree_nodeINS_12__value_typeINS_12basic_stringIcNS_11char_traitsIcEENS1_IcEEEENS_6vectorIdNS1_IdEEEEEEPvEEEEEC2B8ue170006ERSF_b, symObjAddr: 0x10B94, symBinAddr: 0x100014430, symSize: 0x38 }
  - { offsetInCU: 0x1D743, offset: 0x1D743, size: 0x8, addend: 0x0, symName: __ZNSt3__110unique_ptrINS_11__tree_nodeINS_12__value_typeINS_12basic_stringIcNS_11char_traitsIcEENS_9allocatorIcEEEENS_6vectorIdNS6_IdEEEEEEPvEENS_22__tree_node_destructorINS6_ISE_EEEEEC2B8ue170006ILb1EvEEPSE_NS_16__dependent_typeINS_27__unique_ptr_deleter_sfinaeISH_EEXT_EE20__good_rval_ref_typeE, symObjAddr: 0x10BCC, symBinAddr: 0x100014468, symSize: 0x48 }
  - { offsetInCU: 0x1D794, offset: 0x1D794, size: 0x8, addend: 0x0, symName: __ZNSt3__117__compressed_pairIPNS_11__tree_nodeINS_12__value_typeINS_12basic_stringIcNS_11char_traitsIcEENS_9allocatorIcEEEENS_6vectorIdNS6_IdEEEEEEPvEENS_22__tree_node_destructorINS6_ISE_EEEEEC1B8ue170006IRSF_SI_EEOT_OT0_, symObjAddr: 0x10C14, symBinAddr: 0x1000144B0, symSize: 0x3C }
  - { offsetInCU: 0x1D7EC, offset: 0x1D7EC, size: 0x8, addend: 0x0, symName: __ZNSt3__117__compressed_pairIPNS_11__tree_nodeINS_12__value_typeINS_12basic_stringIcNS_11char_traitsIcEENS_9allocatorIcEEEENS_6vectorIdNS6_IdEEEEEEPvEENS_22__tree_node_destructorINS6_ISE_EEEEEC2B8ue170006IRSF_SI_EEOT_OT0_, symObjAddr: 0x10C50, symBinAddr: 0x1000144EC, symSize: 0x48 }
  - { offsetInCU: 0x1D844, offset: 0x1D844, size: 0x8, addend: 0x0, symName: __ZNSt3__122__compressed_pair_elemIPNS_11__tree_nodeINS_12__value_typeINS_12basic_stringIcNS_11char_traitsIcEENS_9allocatorIcEEEENS_6vectorIdNS6_IdEEEEEEPvEELi0ELb0EEC2B8ue170006IRSF_vEEOT_, symObjAddr: 0x10C98, symBinAddr: 0x100014534, symSize: 0x24 }
  - { offsetInCU: 0x1D886, offset: 0x1D886, size: 0x8, addend: 0x0, symName: __ZNSt3__122__compressed_pair_elemINS_22__tree_node_destructorINS_9allocatorINS_11__tree_nodeINS_12__value_typeINS_12basic_stringIcNS_11char_traitsIcEENS2_IcEEEENS_6vectorIdNS2_IdEEEEEEPvEEEEEELi1ELb0EEC2B8ue170006ISH_vEEOT_, symObjAddr: 0x10CBC, symBinAddr: 0x100014558, symSize: 0x24 }
  - { offsetInCU: 0x1D8C8, offset: 0x1D8C8, size: 0x8, addend: 0x0, symName: __ZNSt3__19allocatorINS_11__tree_nodeINS_12__value_typeINS_12basic_stringIcNS_11char_traitsIcEENS0_IcEEEENS_6vectorIdNS0_IdEEEEEEPvEEE9constructB8ue170006INS_4pairIKS7_SA_EEJRKSI_EEEvPT_DpOT0_, symObjAddr: 0x10CE0, symBinAddr: 0x10001457C, symSize: 0x30 }
  - { offsetInCU: 0x1D91E, offset: 0x1D91E, size: 0x8, addend: 0x0, symName: __ZNSt3__14pairIKNS_12basic_stringIcNS_11char_traitsIcEENS_9allocatorIcEEEENS_6vectorIdNS4_IdEEEEEC1B8ue170006ERKSB_, symObjAddr: 0x10D10, symBinAddr: 0x1000145AC, symSize: 0x34 }
  - { offsetInCU: 0x1D952, offset: 0x1D952, size: 0x8, addend: 0x0, symName: __ZNSt3__14pairIKNS_12basic_stringIcNS_11char_traitsIcEENS_9allocatorIcEEEENS_6vectorIdNS4_IdEEEEEC2B8ue170006ERKSB_, symObjAddr: 0x10D44, symBinAddr: 0x1000145E0, symSize: 0x70 }
  - { offsetInCU: 0x1D986, offset: 0x1D986, size: 0x8, addend: 0x0, symName: __ZNKSt3__117__compressed_pairIPNS_11__tree_nodeINS_12__value_typeINS_12basic_stringIcNS_11char_traitsIcEENS_9allocatorIcEEEENS_6vectorIdNS6_IdEEEEEEPvEENS_22__tree_node_destructorINS6_ISE_EEEEE5firstB8ue170006Ev, symObjAddr: 0x10DB4, symBinAddr: 0x100014650, symSize: 0x24 }
  - { offsetInCU: 0x1D9AC, offset: 0x1D9AC, size: 0x8, addend: 0x0, symName: __ZNKSt3__122__compressed_pair_elemIPNS_11__tree_nodeINS_12__value_typeINS_12basic_stringIcNS_11char_traitsIcEENS_9allocatorIcEEEENS_6vectorIdNS6_IdEEEEEEPvEELi0ELb0EE5__getB8ue170006Ev, symObjAddr: 0x10DD8, symBinAddr: 0x100014674, symSize: 0x14 }
  - { offsetInCU: 0x1D9D2, offset: 0x1D9D2, size: 0x8, addend: 0x0, symName: __ZNSt3__117__compressed_pairIPNS_11__tree_nodeINS_12__value_typeINS_12basic_stringIcNS_11char_traitsIcEENS_9allocatorIcEEEENS_6vectorIdNS6_IdEEEEEEPvEENS_22__tree_node_destructorINS6_ISE_EEEEE6secondB8ue170006Ev, symObjAddr: 0x10DEC, symBinAddr: 0x100014688, symSize: 0x28 }
  - { offsetInCU: 0x1D9F8, offset: 0x1D9F8, size: 0x8, addend: 0x0, symName: __ZNSt3__122__compressed_pair_elemINS_22__tree_node_destructorINS_9allocatorINS_11__tree_nodeINS_12__value_typeINS_12basic_stringIcNS_11char_traitsIcEENS2_IcEEEENS_6vectorIdNS2_IdEEEEEEPvEEEEEELi1ELb0EE5__getB8ue170006Ev, symObjAddr: 0x10E14, symBinAddr: 0x1000146B0, symSize: 0x14 }
  - { offsetInCU: 0x1DA1E, offset: 0x1DA1E, size: 0x8, addend: 0x0, symName: __ZNSt3__117__compressed_pairIPNS_11__tree_nodeINS_12__value_typeINS_12basic_stringIcNS_11char_traitsIcEENS_9allocatorIcEEEENS_6vectorIdNS6_IdEEEEEEPvEENS_22__tree_node_destructorINS6_ISE_EEEEE5firstB8ue170006Ev, symObjAddr: 0x10E28, symBinAddr: 0x1000146C4, symSize: 0x24 }
  - { offsetInCU: 0x1DA44, offset: 0x1DA44, size: 0x8, addend: 0x0, symName: __ZNSt3__122__compressed_pair_elemIPNS_11__tree_nodeINS_12__value_typeINS_12basic_stringIcNS_11char_traitsIcEENS_9allocatorIcEEEENS_6vectorIdNS6_IdEEEEEEPvEELi0ELb0EE5__getB8ue170006Ev, symObjAddr: 0x10E4C, symBinAddr: 0x1000146E8, symSize: 0x14 }
  - { offsetInCU: 0x1DA6A, offset: 0x1DA6A, size: 0x8, addend: 0x0, symName: __ZNSt3__110unique_ptrINS_11__tree_nodeINS_12__value_typeINS_12basic_stringIcNS_11char_traitsIcEENS_9allocatorIcEEEENS_6vectorIdNS6_IdEEEEEEPvEENS_22__tree_node_destructorINS6_ISE_EEEEED2B8ue170006Ev, symObjAddr: 0x10E60, symBinAddr: 0x1000146FC, symSize: 0x30 }
  - { offsetInCU: 0x1DA94, offset: 0x1DA94, size: 0x8, addend: 0x0, symName: __ZNSt3__110unique_ptrINS_11__tree_nodeINS_12__value_typeINS_12basic_stringIcNS_11char_traitsIcEENS_9allocatorIcEEEENS_6vectorIdNS6_IdEEEEEEPvEENS_22__tree_node_destructorINS6_ISE_EEEEE5resetB8ue170006EPSE_, symObjAddr: 0x10E90, symBinAddr: 0x10001472C, symSize: 0x78 }
  - { offsetInCU: 0x1DAD8, offset: 0x1DAD8, size: 0x8, addend: 0x0, symName: __ZNSt3__122__tree_node_destructorINS_9allocatorINS_11__tree_nodeINS_12__value_typeINS_12basic_stringIcNS_11char_traitsIcEENS1_IcEEEENS_6vectorIdNS1_IdEEEEEEPvEEEEEclB8ue170006EPSE_, symObjAddr: 0x10F08, symBinAddr: 0x1000147A4, symSize: 0x94 }
  - { offsetInCU: 0x1DB0D, offset: 0x1DB0D, size: 0x8, addend: 0x0, symName: __ZNSt3__19basic_iosIcNS_11char_traitsIcEEEC2B8ue170006Ev, symObjAddr: 0x10F9C, symBinAddr: 0x100014838, symSize: 0x44 }
  - { offsetInCU: 0x1DB37, offset: 0x1DB37, size: 0x8, addend: 0x0, symName: __ZNSt3__113basic_ostreamIcNS_11char_traitsIcEEEC2B8ue170006EPNS_15basic_streambufIcS2_EE, symObjAddr: 0x10FE0, symBinAddr: 0x10001487C, symSize: 0x60 }
  - { offsetInCU: 0x1DB7C, offset: 0x1DB7C, size: 0x8, addend: 0x0, symName: __ZNSt3__19basic_iosIcNS_11char_traitsIcEEE8setstateB8ue170006Ej, symObjAddr: 0x11040, symBinAddr: 0x1000148DC, symSize: 0x2C }
  - { offsetInCU: 0x1DBB1, offset: 0x1DBB1, size: 0x8, addend: 0x0, symName: __ZNSt3__18ios_baseC2B8ue170006Ev, symObjAddr: 0x1106C, symBinAddr: 0x100014908, symSize: 0x24 }
  - { offsetInCU: 0x1DBDB, offset: 0x1DBDB, size: 0x8, addend: 0x0, symName: __ZNSt3__19basic_iosIcNS_11char_traitsIcEEE4initB8ue170006EPNS_15basic_streambufIcS2_EE, symObjAddr: 0x11090, symBinAddr: 0x10001492C, symSize: 0x44 }
  - { offsetInCU: 0x1DC12, offset: 0x1DC12, size: 0x8, addend: 0x0, symName: __ZNSt3__111char_traitsIcE3eofB8ue170006Ev, symObjAddr: 0x110D4, symBinAddr: 0x100014970, symSize: 0x8 }
  - { offsetInCU: 0x1DC26, offset: 0x1DC26, size: 0x8, addend: 0x0, symName: __ZNSt3__18ios_base8setstateB8ue170006Ej, symObjAddr: 0x110DC, symBinAddr: 0x100014978, symSize: 0x34 }
  - { offsetInCU: 0x1DC7E, offset: 0x1DC7E, size: 0x8, addend: 0x0, symName: __ZNKSt3__113basic_ostreamIcNS_11char_traitsIcEEE6sentrycvbB8ue170006Ev, symObjAddr: 0x112FC, symBinAddr: 0x100014B98, symSize: 0x1C }
  - { offsetInCU: 0x1DCA4, offset: 0x1DCA4, size: 0x8, addend: 0x0, symName: __ZNSt3__119ostreambuf_iteratorIcNS_11char_traitsIcEEEC1B8ue170006ERNS_13basic_ostreamIcS2_EE, symObjAddr: 0x11558, symBinAddr: 0x100014DF4, symSize: 0x34 }
  - { offsetInCU: 0x1DCDC, offset: 0x1DCDC, size: 0x8, addend: 0x0, symName: __ZNKSt3__18ios_base5flagsB8ue170006Ev, symObjAddr: 0x1158C, symBinAddr: 0x100014E28, symSize: 0x18 }
  - { offsetInCU: 0x1DD04, offset: 0x1DD04, size: 0x8, addend: 0x0, symName: __ZNKSt3__19basic_iosIcNS_11char_traitsIcEEE4fillB8ue170006Ev, symObjAddr: 0x115A4, symBinAddr: 0x100014E40, symSize: 0x64 }
  - { offsetInCU: 0x1DD2C, offset: 0x1DD2C, size: 0x8, addend: 0x0, symName: __ZNKSt3__119ostreambuf_iteratorIcNS_11char_traitsIcEEE6failedB8ue170006Ev, symObjAddr: 0x11608, symBinAddr: 0x100014EA4, symSize: 0x24 }
  - { offsetInCU: 0x1DD52, offset: 0x1DD52, size: 0x8, addend: 0x0, symName: __ZNKSt3__18ios_base5widthB8ue170006Ev, symObjAddr: 0x1162C, symBinAddr: 0x100014EC8, symSize: 0x18 }
  - { offsetInCU: 0x1DD7A, offset: 0x1DD7A, size: 0x8, addend: 0x0, symName: __ZNSt3__115basic_streambufIcNS_11char_traitsIcEEE5sputnB8ue170006EPKcl, symObjAddr: 0x11644, symBinAddr: 0x100014EE0, symSize: 0x3C }
  - { offsetInCU: 0x1DDBC, offset: 0x1DDBC, size: 0x8, addend: 0x0, symName: __ZNSt3__112basic_stringIcNS_11char_traitsIcEENS_9allocatorIcEEEC1B8ue170006Emc, symObjAddr: 0x11680, symBinAddr: 0x100014F1C, symSize: 0x3C }
  - { offsetInCU: 0x1DE04, offset: 0x1DE04, size: 0x8, addend: 0x0, symName: __ZNSt3__18ios_base5widthB8ue170006El, symObjAddr: 0x116BC, symBinAddr: 0x100014F58, symSize: 0x2C }
  - { offsetInCU: 0x1DE4A, offset: 0x1DE4A, size: 0x8, addend: 0x0, symName: __ZNSt3__112basic_stringIcNS_11char_traitsIcEENS_9allocatorIcEEEC2B8ue170006Emc, symObjAddr: 0x116E8, symBinAddr: 0x100014F84, symSize: 0x4C }
  - { offsetInCU: 0x1DE92, offset: 0x1DE92, size: 0x8, addend: 0x0, symName: __ZNSt3__119ostreambuf_iteratorIcNS_11char_traitsIcEEEC2B8ue170006ERNS_13basic_ostreamIcS2_EE, symObjAddr: 0x11734, symBinAddr: 0x100014FD0, symSize: 0x54 }
  - { offsetInCU: 0x1DECA, offset: 0x1DECA, size: 0x8, addend: 0x0, symName: __ZNKSt3__19basic_iosIcNS_11char_traitsIcEEE5rdbufB8ue170006Ev, symObjAddr: 0x11788, symBinAddr: 0x100015024, symSize: 0x24 }
  - { offsetInCU: 0x1DEF2, offset: 0x1DEF2, size: 0x8, addend: 0x0, symName: __ZNKSt3__18ios_base5rdbufB8ue170006Ev, symObjAddr: 0x117AC, symBinAddr: 0x100015048, symSize: 0x18 }
  - { offsetInCU: 0x1DF18, offset: 0x1DF18, size: 0x8, addend: 0x0, symName: __ZNSt3__111char_traitsIcE11eq_int_typeB8ue170006Eii, symObjAddr: 0x117C4, symBinAddr: 0x100015060, symSize: 0x28 }
  - { offsetInCU: 0x1DF4B, offset: 0x1DF4B, size: 0x8, addend: 0x0, symName: __ZNKSt3__19basic_iosIcNS_11char_traitsIcEEE5widenB8ue170006Ec, symObjAddr: 0x117EC, symBinAddr: 0x100015088, symSize: 0x84 }
  - { offsetInCU: 0x1DFB4, offset: 0x1DFB4, size: 0x8, addend: 0x0, symName: __ZNKSt3__15ctypeIcE5widenB8ue170006Ec, symObjAddr: 0x1189C, symBinAddr: 0x100015138, symSize: 0x38 }
  - { offsetInCU: 0x1DFE9, offset: 0x1DFE9, size: 0x8, addend: 0x0, symName: __ZNSt3__18ios_base9precisionB8ue170006El, symObjAddr: 0x118D4, symBinAddr: 0x100015170, symSize: 0x2C }
  - { offsetInCU: 0x1E02F, offset: 0x1E02F, size: 0x8, addend: 0x0, symName: __ZNSt3__113basic_istreamIcNS_11char_traitsIcEEEC2B8ue170006EPNS_15basic_streambufIcS2_EE, symObjAddr: 0x11900, symBinAddr: 0x10001519C, symSize: 0x64 }
  - { offsetInCU: 0x1E074, offset: 0x1E074, size: 0x8, addend: 0x0, symName: __ZNKSt3__19basic_iosIcNS_11char_traitsIcEEE4failB8ue170006Ev, symObjAddr: 0x11964, symBinAddr: 0x100015200, symSize: 0x28 }
  - { offsetInCU: 0x1E09A, offset: 0x1E09A, size: 0x8, addend: 0x0, symName: __ZNKSt3__18ios_base4failB8ue170006Ev, symObjAddr: 0x1198C, symBinAddr: 0x100015228, symSize: 0x28 }
  - { offsetInCU: 0x1E0C2, offset: 0x1E0C2, size: 0x8, addend: 0x0, symName: __ZNSt3__16vectorINS0_IdNS_9allocatorIdEEEENS1_IS3_EEEC2B8ue170006Ev, symObjAddr: 0x119B4, symBinAddr: 0x100015250, symSize: 0x4C }
  - { offsetInCU: 0x1E0EC, offset: 0x1E0EC, size: 0x8, addend: 0x0, symName: __ZNSt3__117__compressed_pairIPNS_6vectorIdNS_9allocatorIdEEEENS2_IS4_EEEC1B8ue170006IDnNS_18__default_init_tagEEEOT_OT0_, symObjAddr: 0x11A00, symBinAddr: 0x10001529C, symSize: 0x3C }
  - { offsetInCU: 0x1E144, offset: 0x1E144, size: 0x8, addend: 0x0, symName: __ZNSt3__117__compressed_pairIPNS_6vectorIdNS_9allocatorIdEEEENS2_IS4_EEEC2B8ue170006IDnNS_18__default_init_tagEEEOT_OT0_, symObjAddr: 0x11A3C, symBinAddr: 0x1000152D8, symSize: 0x40 }
  - { offsetInCU: 0x1E19C, offset: 0x1E19C, size: 0x8, addend: 0x0, symName: __ZNSt3__122__compressed_pair_elemINS_9allocatorINS_6vectorIdNS1_IdEEEEEELi1ELb1EEC2B8ue170006ENS_18__default_init_tagE, symObjAddr: 0x11A7C, symBinAddr: 0x100015318, symSize: 0x2C }
  - { offsetInCU: 0x1E1D0, offset: 0x1E1D0, size: 0x8, addend: 0x0, symName: __ZNSt3__19allocatorINS_6vectorIdNS0_IdEEEEEC2B8ue170006Ev, symObjAddr: 0x11AA8, symBinAddr: 0x100015344, symSize: 0x2C }
  - { offsetInCU: 0x1E1FA, offset: 0x1E1FA, size: 0x8, addend: 0x0, symName: __ZNSt3__116__non_trivial_ifILb1ENS_9allocatorINS_6vectorIdNS1_IdEEEEEEEC2B8ue170006Ev, symObjAddr: 0x11AD4, symBinAddr: 0x100015370, symSize: 0x14 }
  - { offsetInCU: 0x1E224, offset: 0x1E224, size: 0x8, addend: 0x0, symName: __ZNSt3__16vectorINS0_IdNS_9allocatorIdEEEENS1_IS3_EEED2B8ue170006Ev, symObjAddr: 0x11AE8, symBinAddr: 0x100015384, symSize: 0x44 }
  - { offsetInCU: 0x1E24E, offset: 0x1E24E, size: 0x8, addend: 0x0, symName: __ZNSt3__16vectorINS0_IdNS_9allocatorIdEEEENS1_IS3_EEE16__destroy_vectorC1B8ue170006ERS5_, symObjAddr: 0x11B2C, symBinAddr: 0x1000153C8, symSize: 0x34 }
  - { offsetInCU: 0x1E287, offset: 0x1E287, size: 0x8, addend: 0x0, symName: __ZNSt3__16vectorINS0_IdNS_9allocatorIdEEEENS1_IS3_EEE16__destroy_vectorclB8ue170006Ev, symObjAddr: 0x11B60, symBinAddr: 0x1000153FC, symSize: 0x90 }
  - { offsetInCU: 0x1E2AD, offset: 0x1E2AD, size: 0x8, addend: 0x0, symName: __ZNSt3__16vectorINS0_IdNS_9allocatorIdEEEENS1_IS3_EEE16__destroy_vectorC2B8ue170006ERS5_, symObjAddr: 0x11BF0, symBinAddr: 0x10001548C, symSize: 0x20 }
  - { offsetInCU: 0x1E2E6, offset: 0x1E2E6, size: 0x8, addend: 0x0, symName: __ZNSt3__16vectorINS0_IdNS_9allocatorIdEEEENS1_IS3_EEE7__clearB8ue170006Ev, symObjAddr: 0x11C10, symBinAddr: 0x1000154AC, symSize: 0x28 }
  - { offsetInCU: 0x1E30C, offset: 0x1E30C, size: 0x8, addend: 0x0, symName: __ZNSt3__16vectorIdNS_9allocatorIdEEEC2B8ue170006Ev, symObjAddr: 0x11C38, symBinAddr: 0x1000154D4, symSize: 0x4C }
  - { offsetInCU: 0x1E336, offset: 0x1E336, size: 0x8, addend: 0x0, symName: __ZNSt3__16__treeINS_12__value_typeINS_12basic_stringIcNS_11char_traitsIcEENS_9allocatorIcEEEENS_3mapIS7_NS_6vectorIdNS5_IdEEEENS_4lessIS7_EENS5_INS_4pairIKS7_SB_EEEEEEEENS_19__map_value_compareIS7_SJ_SD_Lb1EEENS5_ISJ_EEE4findIS7_EENS_15__tree_iteratorISJ_PNS_11__tree_nodeISJ_PvEElEERKT_, symObjAddr: 0x11C84, symBinAddr: 0x100015520, symSize: 0xF8 }
  - { offsetInCU: 0x1E385, offset: 0x1E385, size: 0x8, addend: 0x0, symName: __ZNSt3__114__map_iteratorINS_15__tree_iteratorINS_12__value_typeINS_12basic_stringIcNS_11char_traitsIcEENS_9allocatorIcEEEENS_3mapIS8_NS_6vectorIdNS6_IdEEEENS_4lessIS8_EENS6_INS_4pairIKS8_SC_EEEEEEEEPNS_11__tree_nodeISK_PvEElEEEC1B8ue170006ESP_, symObjAddr: 0x11D7C, symBinAddr: 0x100015618, symSize: 0x34 }
  - { offsetInCU: 0x1E3BE, offset: 0x1E3BE, size: 0x8, addend: 0x0, symName: __ZNSt3__16__treeINS_12__value_typeINS_12basic_stringIcNS_11char_traitsIcEENS_9allocatorIcEEEENS_3mapIS7_NS_6vectorIdNS5_IdEEEENS_4lessIS7_EENS5_INS_4pairIKS7_SB_EEEEEEEENS_19__map_value_compareIS7_SJ_SD_Lb1EEENS5_ISJ_EEE13__lower_boundIS7_EENS_15__tree_iteratorISJ_PNS_11__tree_nodeISJ_PvEElEERKT_ST_PNS_15__tree_end_nodeIPNS_16__tree_node_baseISR_EEEE, symObjAddr: 0x11DB0, symBinAddr: 0x10001564C, symSize: 0xA4 }
  - { offsetInCU: 0x1E41C, offset: 0x1E41C, size: 0x8, addend: 0x0, symName: __ZNSt3__16__treeINS_12__value_typeINS_12basic_stringIcNS_11char_traitsIcEENS_9allocatorIcEEEENS_3mapIS7_NS_6vectorIdNS5_IdEEEENS_4lessIS7_EENS5_INS_4pairIKS7_SB_EEEEEEEENS_19__map_value_compareIS7_SJ_SD_Lb1EEENS5_ISJ_EEE3endB8ue170006Ev, symObjAddr: 0x11E88, symBinAddr: 0x100015724, symSize: 0x34 }
  - { offsetInCU: 0x1E442, offset: 0x1E442, size: 0x8, addend: 0x0, symName: __ZNKSt3__115__tree_iteratorINS_12__value_typeINS_12basic_stringIcNS_11char_traitsIcEENS_9allocatorIcEEEENS_3mapIS7_NS_6vectorIdNS5_IdEEEENS_4lessIS7_EENS5_INS_4pairIKS7_SB_EEEEEEEEPNS_11__tree_nodeISJ_PvEElEdeB8ue170006Ev, symObjAddr: 0x11EBC, symBinAddr: 0x100015758, symSize: 0x28 }
  - { offsetInCU: 0x1E468, offset: 0x1E468, size: 0x8, addend: 0x0, symName: __ZNSt3__115__tree_iteratorINS_12__value_typeINS_12basic_stringIcNS_11char_traitsIcEENS_9allocatorIcEEEENS_3mapIS7_NS_6vectorIdNS5_IdEEEENS_4lessIS7_EENS5_INS_4pairIKS7_SB_EEEEEEEEPNS_11__tree_nodeISJ_PvEElEC1B8ue170006EPNS_15__tree_end_nodeIPNS_16__tree_node_baseISL_EEEE, symObjAddr: 0x11EE4, symBinAddr: 0x100015780, symSize: 0x34 }
  - { offsetInCU: 0x1E4A1, offset: 0x1E4A1, size: 0x8, addend: 0x0, symName: __ZNSt3__115__tree_iteratorINS_12__value_typeINS_12basic_stringIcNS_11char_traitsIcEENS_9allocatorIcEEEENS_3mapIS7_NS_6vectorIdNS5_IdEEEENS_4lessIS7_EENS5_INS_4pairIKS7_SB_EEEEEEEEPNS_11__tree_nodeISJ_PvEElEC2B8ue170006EPNS_15__tree_end_nodeIPNS_16__tree_node_baseISL_EEEE, symObjAddr: 0x11F18, symBinAddr: 0x1000157B4, symSize: 0x20 }
  - { offsetInCU: 0x1E4DA, offset: 0x1E4DA, size: 0x8, addend: 0x0, symName: __ZNSt3__114__map_iteratorINS_15__tree_iteratorINS_12__value_typeINS_12basic_stringIcNS_11char_traitsIcEENS_9allocatorIcEEEENS_3mapIS8_NS_6vectorIdNS6_IdEEEENS_4lessIS8_EENS6_INS_4pairIKS8_SC_EEEEEEEEPNS_11__tree_nodeISK_PvEElEEEC2B8ue170006ESP_, symObjAddr: 0x11F68, symBinAddr: 0x100015804, symSize: 0x20 }
  - { offsetInCU: 0x1E513, offset: 0x1E513, size: 0x8, addend: 0x0, symName: __ZNSt3__16__treeINS_12__value_typeINS_12basic_stringIcNS_11char_traitsIcEENS_9allocatorIcEEEENS_3mapIS7_NS_6vectorIdNS5_IdEEEENS_4lessIS7_EENS5_INS_4pairIKS7_SB_EEEEEEEENS_19__map_value_compareIS7_SJ_SD_Lb1EEENS5_ISJ_EEE25__emplace_unique_key_argsIS7_JRKNS_21piecewise_construct_tENS_5tupleIJRSF_EEENSS_IJEEEEEENSE_INS_15__tree_iteratorISJ_PNS_11__tree_nodeISJ_PvEElEEbEERKT_DpOT0_, symObjAddr: 0x11F88, symBinAddr: 0x100015824, symSize: 0x100 }
  - { offsetInCU: 0x1E5E9, offset: 0x1E5E9, size: 0x8, addend: 0x0, symName: __ZNSt3__16__treeINS_12__value_typeINS_12basic_stringIcNS_11char_traitsIcEENS_9allocatorIcEEEENS_3mapIS7_NS_6vectorIdNS5_IdEEEENS_4lessIS7_EENS5_INS_4pairIKS7_SB_EEEEEEEENS_19__map_value_compareIS7_SJ_SD_Lb1EEENS5_ISJ_EEE16__construct_nodeIJRKNS_21piecewise_construct_tENS_5tupleIJRSF_EEENSS_IJEEEEEENS_10unique_ptrINS_11__tree_nodeISJ_PvEENS_22__tree_node_destructorINS5_ISZ_EEEEEEDpOT_, symObjAddr: 0x120B4, symBinAddr: 0x100015950, symSize: 0x120 }
  - { offsetInCU: 0x1E672, offset: 0x1E672, size: 0x8, addend: 0x0, symName: __ZNSt3__116allocator_traitsINS_9allocatorINS_11__tree_nodeINS_12__value_typeINS_12basic_stringIcNS_11char_traitsIcEENS1_IcEEEENS_3mapIS8_NS_6vectorIdNS1_IdEEEENS_4lessIS8_EENS1_INS_4pairIKS8_SC_EEEEEEEEPvEEEEE9constructB8ue170006INSF_ISG_SJ_EEJRKNS_21piecewise_construct_tENS_5tupleIJRSG_EEENSU_IJEEEEvEEvRSN_PT_DpOT0_, symObjAddr: 0x121D4, symBinAddr: 0x100015A70, symSize: 0x44 }
  - { offsetInCU: 0x1E6F1, offset: 0x1E6F1, size: 0x8, addend: 0x0, symName: __ZNSt3__19allocatorINS_11__tree_nodeINS_12__value_typeINS_12basic_stringIcNS_11char_traitsIcEENS0_IcEEEENS_3mapIS7_NS_6vectorIdNS0_IdEEEENS_4lessIS7_EENS0_INS_4pairIKS7_SB_EEEEEEEEPvEEE9constructB8ue170006INSE_ISF_SI_EEJRKNS_21piecewise_construct_tENS_5tupleIJRSF_EEENSS_IJEEEEEEvPT_DpOT0_, symObjAddr: 0x12218, symBinAddr: 0x100015AB4, symSize: 0x44 }
  - { offsetInCU: 0x1E76D, offset: 0x1E76D, size: 0x8, addend: 0x0, symName: __ZNSt3__14pairIKNS_12basic_stringIcNS_11char_traitsIcEENS_9allocatorIcEEEENS_3mapIS6_NS_6vectorIdNS4_IdEEEENS_4lessIS6_EENS4_INS0_IS7_SB_EEEEEEEC1B8ue170006IJRS7_EJEEENS_21piecewise_construct_tENS_5tupleIJDpT_EEENSL_IJDpT0_EEE, symObjAddr: 0x1225C, symBinAddr: 0x100015AF8, symSize: 0x3C }
  - { offsetInCU: 0x1E7D4, offset: 0x1E7D4, size: 0x8, addend: 0x0, symName: __ZNSt3__14pairIKNS_12basic_stringIcNS_11char_traitsIcEENS_9allocatorIcEEEENS_3mapIS6_NS_6vectorIdNS4_IdEEEENS_4lessIS6_EENS4_INS0_IS7_SB_EEEEEEEC1B8ue170006IJRS7_EJEJLm0EEJEEENS_21piecewise_construct_tERNS_5tupleIJDpT_EEERNSL_IJDpT0_EEENS_15__tuple_indicesIJXspT1_EEEENSU_IJXspT2_EEEE, symObjAddr: 0x12298, symBinAddr: 0x100015B34, symSize: 0x3C }
  - { offsetInCU: 0x1E861, offset: 0x1E861, size: 0x8, addend: 0x0, symName: __ZNSt3__14pairIKNS_12basic_stringIcNS_11char_traitsIcEENS_9allocatorIcEEEENS_3mapIS6_NS_6vectorIdNS4_IdEEEENS_4lessIS6_EENS4_INS0_IS7_SB_EEEEEEEC2B8ue170006IJRS7_EJEJLm0EEJEEENS_21piecewise_construct_tERNS_5tupleIJDpT_EEERNSL_IJDpT0_EEENS_15__tuple_indicesIJXspT1_EEEENSU_IJXspT2_EEEE, symObjAddr: 0x122D4, symBinAddr: 0x100015B70, symSize: 0x50 }
  - { offsetInCU: 0x1E8EE, offset: 0x1E8EE, size: 0x8, addend: 0x0, symName: __ZNSt3__112__tuple_leafILm0ERKNS_12basic_stringIcNS_11char_traitsIcEENS_9allocatorIcEEEELb0EE3getB8ue170006Ev, symObjAddr: 0x12348, symBinAddr: 0x100015BE4, symSize: 0x18 }
  - { offsetInCU: 0x1E914, offset: 0x1E914, size: 0x8, addend: 0x0, symName: __ZNSt3__15tupleIJRKNS_12basic_stringIcNS_11char_traitsIcEENS_9allocatorIcEEEEEEC1B8ue170006INS_4_AndELi0EEES8_, symObjAddr: 0x12360, symBinAddr: 0x100015BFC, symSize: 0x34 }
  - { offsetInCU: 0x1E95C, offset: 0x1E95C, size: 0x8, addend: 0x0, symName: __ZNSt3__15tupleIJRKNS_12basic_stringIcNS_11char_traitsIcEENS_9allocatorIcEEEEEEC2B8ue170006INS_4_AndELi0EEES8_, symObjAddr: 0x12394, symBinAddr: 0x100015C30, symSize: 0x34 }
  - { offsetInCU: 0x1E9A4, offset: 0x1E9A4, size: 0x8, addend: 0x0, symName: __ZNSt3__112__tuple_implINS_15__tuple_indicesIJLm0EEEEJRKNS_12basic_stringIcNS_11char_traitsIcEENS_9allocatorIcEEEEEEC1B8ue170006IJLm0EEJSA_EJEJEJSA_EEENS1_IJXspT_EEEENS_13__tuple_typesIJDpT0_EEENS1_IJXspT1_EEEENSE_IJDpT2_EEEDpOT3_, symObjAddr: 0x123C8, symBinAddr: 0x100015C64, symSize: 0x34 }
  - { offsetInCU: 0x1EA35, offset: 0x1EA35, size: 0x8, addend: 0x0, symName: __ZNSt3__112__tuple_implINS_15__tuple_indicesIJLm0EEEEJRKNS_12basic_stringIcNS_11char_traitsIcEENS_9allocatorIcEEEEEEC2B8ue170006IJLm0EEJSA_EJEJEJSA_EEENS1_IJXspT_EEEENS_13__tuple_typesIJDpT0_EEENS1_IJXspT1_EEEENSE_IJDpT2_EEEDpOT3_, symObjAddr: 0x123FC, symBinAddr: 0x100015C98, symSize: 0x34 }
  - { offsetInCU: 0x1EAC6, offset: 0x1EAC6, size: 0x8, addend: 0x0, symName: __ZNSt3__112__tuple_leafILm0ERKNS_12basic_stringIcNS_11char_traitsIcEENS_9allocatorIcEEEELb0EEC2B8ue170006IS8_vEEOT_, symObjAddr: 0x12430, symBinAddr: 0x100015CCC, symSize: 0x20 }
  - { offsetInCU: 0x1EB09, offset: 0x1EB09, size: 0x8, addend: 0x0, symName: __ZNSt3__16__treeINS_12__value_typeINS_12basic_stringIcNS_11char_traitsIcEENS_9allocatorIcEEEENS_6vectorIdNS5_IdEEEEEENS_19__map_value_compareIS7_SB_NS_4lessIS7_EELb1EEENS5_ISB_EEE25__emplace_unique_key_argsIS7_JRKNS_21piecewise_construct_tENS_5tupleIJOS7_EEENSM_IJEEEEEENS_4pairINS_15__tree_iteratorISB_PNS_11__tree_nodeISB_PvEElEEbEERKT_DpOT0_, symObjAddr: 0x12450, symBinAddr: 0x100015CEC, symSize: 0x100 }
  - { offsetInCU: 0x1EBDF, offset: 0x1EBDF, size: 0x8, addend: 0x0, symName: __ZNKSt3__115__tree_iteratorINS_12__value_typeINS_12basic_stringIcNS_11char_traitsIcEENS_9allocatorIcEEEENS_6vectorIdNS5_IdEEEEEEPNS_11__tree_nodeISB_PvEElEptB8ue170006Ev, symObjAddr: 0x12550, symBinAddr: 0x100015DEC, symSize: 0x2C }
  - { offsetInCU: 0x1EC05, offset: 0x1EC05, size: 0x8, addend: 0x0, symName: __ZNSt3__16__treeINS_12__value_typeINS_12basic_stringIcNS_11char_traitsIcEENS_9allocatorIcEEEENS_6vectorIdNS5_IdEEEEEENS_19__map_value_compareIS7_SB_NS_4lessIS7_EELb1EEENS5_ISB_EEE16__construct_nodeIJRKNS_21piecewise_construct_tENS_5tupleIJOS7_EEENSM_IJEEEEEENS_10unique_ptrINS_11__tree_nodeISB_PvEENS_22__tree_node_destructorINS5_IST_EEEEEEDpOT_, symObjAddr: 0x1257C, symBinAddr: 0x100015E18, symSize: 0x120 }
  - { offsetInCU: 0x1EC8E, offset: 0x1EC8E, size: 0x8, addend: 0x0, symName: __ZNSt3__116allocator_traitsINS_9allocatorINS_11__tree_nodeINS_12__value_typeINS_12basic_stringIcNS_11char_traitsIcEENS1_IcEEEENS_6vectorIdNS1_IdEEEEEEPvEEEEE9constructB8ue170006INS_4pairIKS8_SB_EEJRKNS_21piecewise_construct_tENS_5tupleIJOS8_EEENSO_IJEEEEvEEvRSF_PT_DpOT0_, symObjAddr: 0x1269C, symBinAddr: 0x100015F38, symSize: 0x44 }
  - { offsetInCU: 0x1ED0D, offset: 0x1ED0D, size: 0x8, addend: 0x0, symName: __ZNSt3__19allocatorINS_11__tree_nodeINS_12__value_typeINS_12basic_stringIcNS_11char_traitsIcEENS0_IcEEEENS_6vectorIdNS0_IdEEEEEEPvEEE9constructB8ue170006INS_4pairIKS7_SA_EEJRKNS_21piecewise_construct_tENS_5tupleIJOS7_EEENSM_IJEEEEEEvPT_DpOT0_, symObjAddr: 0x126E0, symBinAddr: 0x100015F7C, symSize: 0x44 }
  - { offsetInCU: 0x1ED89, offset: 0x1ED89, size: 0x8, addend: 0x0, symName: __ZNSt3__14pairIKNS_12basic_stringIcNS_11char_traitsIcEENS_9allocatorIcEEEENS_6vectorIdNS4_IdEEEEEC1B8ue170006IJOS6_EJEEENS_21piecewise_construct_tENS_5tupleIJDpT_EEENSF_IJDpT0_EEE, symObjAddr: 0x12724, symBinAddr: 0x100015FC0, symSize: 0x44 }
  - { offsetInCU: 0x1EDF0, offset: 0x1EDF0, size: 0x8, addend: 0x0, symName: __ZNSt3__14pairIKNS_12basic_stringIcNS_11char_traitsIcEENS_9allocatorIcEEEENS_6vectorIdNS4_IdEEEEEC1B8ue170006IJOS6_EJEJLm0EEJEEENS_21piecewise_construct_tERNS_5tupleIJDpT_EEERNSF_IJDpT0_EEENS_15__tuple_indicesIJXspT1_EEEENSO_IJXspT2_EEEE, symObjAddr: 0x12768, symBinAddr: 0x100016004, symSize: 0x3C }
  - { offsetInCU: 0x1EE7D, offset: 0x1EE7D, size: 0x8, addend: 0x0, symName: __ZNSt3__14pairIKNS_12basic_stringIcNS_11char_traitsIcEENS_9allocatorIcEEEENS_6vectorIdNS4_IdEEEEEC2B8ue170006IJOS6_EJEJLm0EEJEEENS_21piecewise_construct_tERNS_5tupleIJDpT_EEERNSF_IJDpT0_EEENS_15__tuple_indicesIJXspT1_EEEENSO_IJXspT2_EEEE, symObjAddr: 0x127A4, symBinAddr: 0x100016040, symSize: 0x50 }
  - { offsetInCU: 0x1EF0A, offset: 0x1EF0A, size: 0x8, addend: 0x0, symName: __ZNSt3__114pointer_traitsIPNS_12__value_typeINS_12basic_stringIcNS_11char_traitsIcEENS_9allocatorIcEEEENS_6vectorIdNS5_IdEEEEEEE10pointer_toB8ue170006ERSB_, symObjAddr: 0x127F4, symBinAddr: 0x100016090, symSize: 0x14 }
  - { offsetInCU: 0x1EF2D, offset: 0x1EF2D, size: 0x8, addend: 0x0, symName: __ZNKSt3__115__tree_iteratorINS_12__value_typeINS_12basic_stringIcNS_11char_traitsIcEENS_9allocatorIcEEEENS_6vectorIdNS5_IdEEEEEEPNS_11__tree_nodeISB_PvEElE8__get_npB8ue170006Ev, symObjAddr: 0x12808, symBinAddr: 0x1000160A4, symSize: 0x18 }
  - { offsetInCU: 0x1EF53, offset: 0x1EF53, size: 0x8, addend: 0x0, symName: __ZNSt3__16vectorIdNS_9allocatorIdEEEC2Em, symObjAddr: 0x12820, symBinAddr: 0x1000160BC, symSize: 0xD4 }
  - { offsetInCU: 0x1EFA3, offset: 0x1EFA3, size: 0x8, addend: 0x0, symName: __ZNSt3__16vectorIdNS_9allocatorIdEEE18__construct_at_endEm, symObjAddr: 0x128F4, symBinAddr: 0x100016190, symSize: 0xC8 }
  - { offsetInCU: 0x1F015, offset: 0x1F015, size: 0x8, addend: 0x0, symName: __ZNSt3__116allocator_traitsINS_9allocatorIdEEE9constructB8ue170006IdJEvEEvRS2_PT_DpOT0_, symObjAddr: 0x129BC, symBinAddr: 0x100016258, symSize: 0x2C }
  - { offsetInCU: 0x1F057, offset: 0x1F057, size: 0x8, addend: 0x0, symName: __ZNSt3__19allocatorIdE9constructB8ue170006IdJEEEvPT_DpOT0_, symObjAddr: 0x129E8, symBinAddr: 0x100016284, symSize: 0x20 }
  - { offsetInCU: 0x1F0B9, offset: 0x1F0B9, size: 0x8, addend: 0x0, symName: __ZNKSt3__16chrono10time_pointINS0_12steady_clockENS0_8durationIxNS_5ratioILl1ELl1000000000EEEEEE16time_since_epochB8ue170006Ev, symObjAddr: 0x12A78, symBinAddr: 0x100016314, symSize: 0x20 }
  - { offsetInCU: 0x1F0EA, offset: 0x1F0EA, size: 0x8, addend: 0x0, symName: __ZNSt3__16chrono8durationIxNS_5ratioILl1ELl1000000000EEEEC1B8ue170006IxEERKT_PNS_9enable_ifIXaasr14is_convertibleIS8_xEE5valueooL_ZNS_17integral_constantIbLb0EE5valueEEntsr23treat_as_floating_pointIS6_EE5valueEvE4typeE, symObjAddr: 0x12A98, symBinAddr: 0x100016334, symSize: 0x3C }
  - { offsetInCU: 0x1F136, offset: 0x1F136, size: 0x8, addend: 0x0, symName: __ZNSt3__16chrono8durationIxNS_5ratioILl1ELl1000000000EEEEC2B8ue170006IxEERKT_PNS_9enable_ifIXaasr14is_convertibleIS8_xEE5valueooL_ZNS_17integral_constantIbLb0EE5valueEEntsr23treat_as_floating_pointIS6_EE5valueEvE4typeE, symObjAddr: 0x12AD4, symBinAddr: 0x100016370, symSize: 0x28 }
...
