---
triple:          'arm64-apple-darwin'
binary-path:     simulation
relocations:
  - { offsetInCU: 0x5C, offset: 0x5C, size: 0x8, addend: 0x0, symName: __ZNSt3__1L19piecewise_constructE, symObjAddr: 0x130F4, symBinAddr: 0x100016CA0, symSize: 0x0 }
  - { offsetInCU: 0xA013, offset: 0xA013, size: 0x8, addend: 0x0, symName: __ZNSt3__17advanceB8ue170006IPdllvEEvRT_T0_, symObjAddr: 0xEBC8, symBinAddr: 0x100012DEC, symSize: 0x38 }
  - { offsetInCU: 0xA0B6, offset: 0xA0B6, size: 0x8, addend: 0x0, symName: __ZNSt3__124__put_character_sequenceB8ue170006IcNS_11char_traitsIcEEEERNS_13basic_ostreamIT_T0_EES7_PKS4_m, symObjAddr: 0xEDDC, symBinAddr: 0x100013000, symSize: 0x1EC }
  - { offsetInCU: 0xE056, offset: 0xE056, size: 0x8, addend: 0x0, symName: __ZNSt3__1eqB8ue170006IcNS_11char_traitsIcEENS_9allocatorIcEEEEbRKNS_12basic_stringIT_T0_T1_EEPKS6_, symObjAddr: 0x727C, symBinAddr: 0x10000B4A0, symSize: 0xAC }
  - { offsetInCU: 0xE0BD, offset: 0xE0BD, size: 0x8, addend: 0x0, symName: __ZNSt3__1neB8ue170006ERKNS_14__map_iteratorINS_15__tree_iteratorINS_12__value_typeINS_12basic_stringIcNS_11char_traitsIcEENS_9allocatorIcEEEENS_3mapIS8_NS_6vectorIdNS6_IdEEEENS_4lessIS8_EENS6_INS_4pairIKS8_SC_EEEEEEEEPNS_11__tree_nodeISK_PvEElEEEESS_, symObjAddr: 0x7328, symBinAddr: 0x10000B54C, symSize: 0x30 }
  - { offsetInCU: 0xE0FA, offset: 0xE0FA, size: 0x8, addend: 0x0, symName: __ZNSt3__1lsB8ue170006INS_11char_traitsIcEEEERNS_13basic_ostreamIcT_EES6_PKc, symObjAddr: 0x755C, symBinAddr: 0x10000B780, symSize: 0x48 }
  - { offsetInCU: 0xE140, offset: 0xE140, size: 0x8, addend: 0x0, symName: __ZNSt3__14endlB8ue170006IcNS_11char_traitsIcEEEERNS_13basic_ostreamIT_T0_EES7_, symObjAddr: 0x75D0, symBinAddr: 0x10000B7F4, symSize: 0x58 }
  - { offsetInCU: 0xE991, offset: 0xE991, size: 0x8, addend: 0x0, symName: __ZNSt3__112defaultfloatB8ue170006ERNS_8ios_baseE, symObjAddr: 0x7AE0, symBinAddr: 0x10000BD04, symSize: 0x2C }
  - { offsetInCU: 0xE9BF, offset: 0xE9BF, size: 0x8, addend: 0x0, symName: __ZNSt3__1lsB8ue170006IcNS_11char_traitsIcEEEERNS_13basic_ostreamIT_T0_EES7_RKNS_8__iom_t5E, symObjAddr: 0x7B0C, symBinAddr: 0x10000BD30, symSize: 0x40 }
  - { offsetInCU: 0xEA0B, offset: 0xEA0B, size: 0x8, addend: 0x0, symName: __ZNSt3__15fixedB8ue170006ERNS_8ios_baseE, symObjAddr: 0x7B4C, symBinAddr: 0x10000BD70, symSize: 0x30 }
  - { offsetInCU: 0xEA39, offset: 0xEA39, size: 0x8, addend: 0x0, symName: __ZNSt3__112setprecisionB8ue170006Ei, symObjAddr: 0x7B7C, symBinAddr: 0x10000BDA0, symSize: 0x2C }
  - { offsetInCU: 0xEAA3, offset: 0xEAA3, size: 0x8, addend: 0x0, symName: __ZNSt3__119__libcpp_deallocateB8ue170006EPvmm, symObjAddr: 0x870C, symBinAddr: 0x10000C930, symSize: 0x30 }
  - { offsetInCU: 0xEAEB, offset: 0xEAEB, size: 0x8, addend: 0x0, symName: __ZNSt3__127__do_deallocate_handle_sizeB8ue170006IJEEEvPvmDpT_, symObjAddr: 0x873C, symBinAddr: 0x10000C960, symSize: 0x28 }
  - { offsetInCU: 0xEB29, offset: 0xEB29, size: 0x8, addend: 0x0, symName: __ZNSt3__124__libcpp_operator_deleteB8ue170006IJPvEEEvDpT_, symObjAddr: 0x8764, symBinAddr: 0x10000C988, symSize: 0x24 }
  - { offsetInCU: 0xEB5E, offset: 0xEB5E, size: 0x8, addend: 0x0, symName: __ZNSt3__118__constexpr_strlenB8ue170006EPKc, symObjAddr: 0x8A18, symBinAddr: 0x10000CC3C, symSize: 0x24 }
  - { offsetInCU: 0xEBC1, offset: 0xEBC1, size: 0x8, addend: 0x0, symName: __ZNSt3__116forward_as_tupleB8ue170006IJNS_12basic_stringIcNS_11char_traitsIcEENS_9allocatorIcEEEEEEENS_5tupleIJDpOT_EEESA_, symObjAddr: 0x8B3C, symBinAddr: 0x10000CD60, symSize: 0x2C }
  - { offsetInCU: 0xEBFA, offset: 0xEBFA, size: 0x8, addend: 0x0, symName: __ZNSt3__116forward_as_tupleB8ue170006IJEEENS_5tupleIJDpOT_EEES4_, symObjAddr: 0x8B68, symBinAddr: 0x10000CD8C, symSize: 0x4 }
  - { offsetInCU: 0xEC1E, offset: 0xEC1E, size: 0x8, addend: 0x0, symName: __ZNSt3__1ltB8ue170006IcNS_11char_traitsIcEENS_9allocatorIcEEEEbRKNS_12basic_stringIT_T0_T1_EESB_, symObjAddr: 0x9174, symBinAddr: 0x10000D398, symSize: 0x38 }
  - { offsetInCU: 0xEC76, offset: 0xEC76, size: 0x8, addend: 0x0, symName: __ZNSt3__13minB8ue170006ImEERKT_S3_S3_, symObjAddr: 0x9454, symBinAddr: 0x10000D678, symSize: 0x2C }
  - { offsetInCU: 0xECB9, offset: 0xECB9, size: 0x8, addend: 0x0, symName: __ZNSt3__112__to_addressB8ue170006IKcEEPT_S3_, symObjAddr: 0x954C, symBinAddr: 0x10000D770, symSize: 0x14 }
  - { offsetInCU: 0xED21, offset: 0xED21, size: 0x8, addend: 0x0, symName: __ZNSt3__13minB8ue170006ImNS_6__lessIvvEEEERKT_S5_S5_T0_, symObjAddr: 0x9618, symBinAddr: 0x10000D83C, symSize: 0x54 }
  - { offsetInCU: 0xEDDE, offset: 0xEDDE, size: 0x8, addend: 0x0, symName: __ZNSt3__117__libcpp_allocateB8ue170006Emm, symObjAddr: 0x98FC, symBinAddr: 0x10000DB20, symSize: 0x28 }
  - { offsetInCU: 0xEE1B, offset: 0xEE1B, size: 0x8, addend: 0x0, symName: __ZNSt3__121__libcpp_operator_newB8ue170006IJmEEEPvDpT_, symObjAddr: 0x993C, symBinAddr: 0x10000DB60, symSize: 0x24 }
  - { offsetInCU: 0xEE5F, offset: 0xEE5F, size: 0x8, addend: 0x0, symName: __ZNSt3__13getB8ue170006ILm0EJONS_12basic_stringIcNS_11char_traitsIcEENS_9allocatorIcEEEEEEERNS_13tuple_elementIXT_ENS_5tupleIJDpT0_EEEE4typeERSC_, symObjAddr: 0x9BC0, symBinAddr: 0x10000DDE4, symSize: 0x24 }
  - { offsetInCU: 0xEEA2, offset: 0xEEA2, size: 0x8, addend: 0x0, symName: __ZNSt3__127__tree_balance_after_insertB8ue170006IPNS_16__tree_node_baseIPvEEEEvT_S5_, symObjAddr: 0xA090, symBinAddr: 0x10000E2B4, symSize: 0x32C }
  - { offsetInCU: 0xEF1E, offset: 0xEF1E, size: 0x8, addend: 0x0, symName: __ZNSt3__120__tree_is_left_childB8ue170006IPNS_16__tree_node_baseIPvEEEEbT_, symObjAddr: 0xA3FC, symBinAddr: 0x10000E620, symSize: 0x2C }
  - { offsetInCU: 0xEF53, offset: 0xEF53, size: 0x8, addend: 0x0, symName: __ZNSt3__118__tree_left_rotateB8ue170006IPNS_16__tree_node_baseIPvEEEEvT_, symObjAddr: 0xA428, symBinAddr: 0x10000E64C, symSize: 0xD8 }
  - { offsetInCU: 0xEF95, offset: 0xEF95, size: 0x8, addend: 0x0, symName: __ZNSt3__119__tree_right_rotateB8ue170006IPNS_16__tree_node_baseIPvEEEEvT_, symObjAddr: 0xA500, symBinAddr: 0x10000E724, symSize: 0xCC }
  - { offsetInCU: 0xF02E, offset: 0xF02E, size: 0x8, addend: 0x0, symName: __ZNSt3__112__to_addressB8ue170006IdEEPT_S2_, symObjAddr: 0xAC68, symBinAddr: 0x10000EE8C, symSize: 0x14 }
  - { offsetInCU: 0xF063, offset: 0xF063, size: 0x8, addend: 0x0, symName: __ZNSt3__122__make_exception_guardB8ue170006INS_6vectorIdNS_9allocatorIdEEE16__destroy_vectorEEENS_28__exception_guard_exceptionsIT_EES7_, symObjAddr: 0xAF0C, symBinAddr: 0x10000F130, symSize: 0x40 }
  - { offsetInCU: 0xF098, offset: 0xF098, size: 0x8, addend: 0x0, symName: __ZNSt3__119__allocate_at_leastB8ue170006INS_9allocatorIdEEEENS_19__allocation_resultINS_16allocator_traitsIT_E7pointerEEERS5_m, symObjAddr: 0xB2B8, symBinAddr: 0x10000F4DC, symSize: 0x40 }
  - { offsetInCU: 0xF2DC, offset: 0xF2DC, size: 0x8, addend: 0x0, symName: __ZNSt3__120__throw_length_errorB8ue170006EPKc, symObjAddr: 0xB480, symBinAddr: 0x10000F6A4, symSize: 0x64 }
  - { offsetInCU: 0xF306, offset: 0xF306, size: 0x8, addend: 0x0, symName: __ZNSt3__130__uninitialized_allocator_copyB8ue170006INS_9allocatorIdEEPKdS4_PdEET2_RT_T0_T1_S6_, symObjAddr: 0xB630, symBinAddr: 0x10000F854, symSize: 0x80 }
  - { offsetInCU: 0xF3A3, offset: 0xF3A3, size: 0x8, addend: 0x0, symName: __ZNSt3__114__unwrap_rangeB8ue170006IPKdS2_EENS_4pairIT0_S4_EET_S6_, symObjAddr: 0xB720, symBinAddr: 0x10000F944, symSize: 0x60 }
  - { offsetInCU: 0xF3EF, offset: 0xF3EF, size: 0x8, addend: 0x0, symName: __ZNSt3__135__uninitialized_allocator_copy_implB8ue170006INS_9allocatorIdEEKdddLPv0EEEPT2_RT_PT0_SA_S6_, symObjAddr: 0xB780, symBinAddr: 0x10000F9A4, symSize: 0x38 }
  - { offsetInCU: 0xF470, offset: 0xF470, size: 0x8, addend: 0x0, symName: __ZNSt3__113__unwrap_iterB8ue170006IPdNS_18__unwrap_iter_implIS1_Lb1EEELi0EEEDTclsrT0_8__unwrapclsr3stdE7declvalIT_EEEES5_, symObjAddr: 0xB7B8, symBinAddr: 0x10000F9DC, symSize: 0x24 }
  - { offsetInCU: 0xF4B4, offset: 0xF4B4, size: 0x8, addend: 0x0, symName: __ZNSt3__113__rewrap_iterB8ue170006IPdS1_NS_18__unwrap_iter_implIS1_Lb1EEEEET_S4_T0_, symObjAddr: 0xB7DC, symBinAddr: 0x10000FA00, symSize: 0x3C }
  - { offsetInCU: 0xF509, offset: 0xF509, size: 0x8, addend: 0x0, symName: __ZNSt3__19make_pairB8ue170006IPKdS2_EENS_4pairINS_18__unwrap_ref_decayIT_E4typeENS4_IT0_E4typeEEEOS5_OS8_, symObjAddr: 0xB818, symBinAddr: 0x10000FA3C, symSize: 0x38 }
  - { offsetInCU: 0xF558, offset: 0xF558, size: 0x8, addend: 0x0, symName: __ZNSt3__113__unwrap_iterB8ue170006IPKdNS_18__unwrap_iter_implIS2_Lb1EEELi0EEEDTclsrT0_8__unwrapclsr3stdE7declvalIT_EEEES6_, symObjAddr: 0xB850, symBinAddr: 0x10000FA74, symSize: 0x24 }
  - { offsetInCU: 0xF6C3, offset: 0xF6C3, size: 0x8, addend: 0x0, symName: __ZNSt3__112__to_addressB8ue170006IKdEEPT_S3_, symObjAddr: 0xB908, symBinAddr: 0x10000FB2C, symSize: 0x14 }
  - { offsetInCU: 0xF6F8, offset: 0xF6F8, size: 0x8, addend: 0x0, symName: __ZNSt3__14copyB8ue170006IPKdPdEET0_T_S5_S4_, symObjAddr: 0xB91C, symBinAddr: 0x10000FB40, symSize: 0x40 }
  - { offsetInCU: 0xF752, offset: 0xF752, size: 0x8, addend: 0x0, symName: __ZNSt3__16__copyB8ue170006INS_17_ClassicAlgPolicyEPKdS3_PdEENS_4pairIT0_T2_EES6_T1_S7_, symObjAddr: 0xB95C, symBinAddr: 0x10000FB80, symSize: 0x44 }
  - { offsetInCU: 0xF7BE, offset: 0xF7BE, size: 0x8, addend: 0x0, symName: __ZNSt3__123__dispatch_copy_or_moveB8ue170006INS_17_ClassicAlgPolicyENS_11__copy_loopIS1_EENS_14__copy_trivialEPKdS6_PdEENS_4pairIT2_T4_EES9_T3_SA_, symObjAddr: 0xB9A0, symBinAddr: 0x10000FBC4, symSize: 0x44 }
  - { offsetInCU: 0xF83C, offset: 0xF83C, size: 0x8, addend: 0x0, symName: __ZNSt3__121__unwrap_and_dispatchB8ue170006INS_10__overloadINS_11__copy_loopINS_17_ClassicAlgPolicyEEENS_14__copy_trivialEEEPKdS8_PdLi0EEENS_4pairIT0_T2_EESB_T1_SC_, symObjAddr: 0xB9E4, symBinAddr: 0x10000FC08, symSize: 0xB4 }
  - { offsetInCU: 0xFA4F, offset: 0xFA4F, size: 0x8, addend: 0x0, symName: __ZNSt3__19make_pairB8ue170006IPKdPdEENS_4pairINS_18__unwrap_ref_decayIT_E4typeENS5_IT0_E4typeEEEOS6_OS9_, symObjAddr: 0xBAE0, symBinAddr: 0x10000FD04, symSize: 0x38 }
  - { offsetInCU: 0xFA9E, offset: 0xFA9E, size: 0x8, addend: 0x0, symName: __ZNSt3__114__rewrap_rangeB8ue170006IPKdS2_EET_S3_T0_, symObjAddr: 0xBB18, symBinAddr: 0x10000FD3C, symSize: 0x2C }
  - { offsetInCU: 0xFAEA, offset: 0xFAEA, size: 0x8, addend: 0x0, symName: __ZNSt3__119__copy_trivial_implB8ue170006IKddEENS_4pairIPT_PT0_EES4_S4_S6_, symObjAddr: 0xBB44, symBinAddr: 0x10000FD68, symSize: 0x80 }
  - { offsetInCU: 0xFB52, offset: 0xFB52, size: 0x8, addend: 0x0, symName: __ZNSt3__119__constexpr_memmoveB8ue170006IdKdLi0EEEPT_S3_PT0_NS_15__element_countE, symObjAddr: 0xBBC4, symBinAddr: 0x10000FDE8, symSize: 0x64 }
  - { offsetInCU: 0xFBC0, offset: 0xFBC0, size: 0x8, addend: 0x0, symName: __ZNSt3__19make_pairB8ue170006IRPKdPdEENS_4pairINS_18__unwrap_ref_decayIT_E4typeENS6_IT0_E4typeEEEOS7_OSA_, symObjAddr: 0xBC28, symBinAddr: 0x10000FE4C, symSize: 0x38 }
  - { offsetInCU: 0xFC0F, offset: 0xFC0F, size: 0x8, addend: 0x0, symName: __ZNSt3__113__rewrap_iterB8ue170006IPKdS2_NS_18__unwrap_iter_implIS2_Lb1EEEEET_S5_T0_, symObjAddr: 0xBD40, symBinAddr: 0x10000FF64, symSize: 0x3C }
  - { offsetInCU: 0xFCB7, offset: 0xFCB7, size: 0x8, addend: 0x0, symName: __ZNSt3__130__uninitialized_allocator_copyB8ue170006INS_9allocatorIdEEPdS3_S3_EET2_RT_T0_T1_S4_, symObjAddr: 0xC1CC, symBinAddr: 0x1000103F0, symSize: 0x80 }
  - { offsetInCU: 0xFD54, offset: 0xFD54, size: 0x8, addend: 0x0, symName: __ZNSt3__114__unwrap_rangeB8ue170006IPdS1_EENS_4pairIT0_S3_EET_S5_, symObjAddr: 0xC24C, symBinAddr: 0x100010470, symSize: 0x60 }
  - { offsetInCU: 0xFDA0, offset: 0xFDA0, size: 0x8, addend: 0x0, symName: __ZNSt3__135__uninitialized_allocator_copy_implB8ue170006INS_9allocatorIdEEdddLPv0EEEPT2_RT_PT0_S9_S5_, symObjAddr: 0xC2AC, symBinAddr: 0x1000104D0, symSize: 0x38 }
  - { offsetInCU: 0xFE21, offset: 0xFE21, size: 0x8, addend: 0x0, symName: __ZNSt3__19make_pairB8ue170006IPdS1_EENS_4pairINS_18__unwrap_ref_decayIT_E4typeENS3_IT0_E4typeEEEOS4_OS7_, symObjAddr: 0xC2E4, symBinAddr: 0x100010508, symSize: 0x38 }
  - { offsetInCU: 0xFF73, offset: 0xFF73, size: 0x8, addend: 0x0, symName: __ZNSt3__14copyB8ue170006IPdS1_EET0_T_S3_S2_, symObjAddr: 0xC38C, symBinAddr: 0x1000105B0, symSize: 0x40 }
  - { offsetInCU: 0xFFCD, offset: 0xFFCD, size: 0x8, addend: 0x0, symName: __ZNSt3__16__copyB8ue170006INS_17_ClassicAlgPolicyEPdS2_S2_EENS_4pairIT0_T2_EES4_T1_S5_, symObjAddr: 0xC3CC, symBinAddr: 0x1000105F0, symSize: 0x44 }
  - { offsetInCU: 0x10039, offset: 0x10039, size: 0x8, addend: 0x0, symName: __ZNSt3__123__dispatch_copy_or_moveB8ue170006INS_17_ClassicAlgPolicyENS_11__copy_loopIS1_EENS_14__copy_trivialEPdS5_S5_EENS_4pairIT2_T4_EES7_T3_S8_, symObjAddr: 0xC410, symBinAddr: 0x100010634, symSize: 0x44 }
  - { offsetInCU: 0x100B7, offset: 0x100B7, size: 0x8, addend: 0x0, symName: __ZNSt3__121__unwrap_and_dispatchB8ue170006INS_10__overloadINS_11__copy_loopINS_17_ClassicAlgPolicyEEENS_14__copy_trivialEEEPdS7_S7_Li0EEENS_4pairIT0_T2_EES9_T1_SA_, symObjAddr: 0xC454, symBinAddr: 0x100010678, symSize: 0xB4 }
  - { offsetInCU: 0x10145, offset: 0x10145, size: 0x8, addend: 0x0, symName: __ZNSt3__114__rewrap_rangeB8ue170006IPdS1_EET_S2_T0_, symObjAddr: 0xC550, symBinAddr: 0x100010774, symSize: 0x2C }
  - { offsetInCU: 0x10191, offset: 0x10191, size: 0x8, addend: 0x0, symName: __ZNSt3__119__copy_trivial_implB8ue170006IddEENS_4pairIPT_PT0_EES3_S3_S5_, symObjAddr: 0xC57C, symBinAddr: 0x1000107A0, symSize: 0x80 }
  - { offsetInCU: 0x101F9, offset: 0x101F9, size: 0x8, addend: 0x0, symName: __ZNSt3__119__constexpr_memmoveB8ue170006IddLi0EEEPT_S2_PT0_NS_15__element_countE, symObjAddr: 0xC5FC, symBinAddr: 0x100010820, symSize: 0x64 }
  - { offsetInCU: 0x10267, offset: 0x10267, size: 0x8, addend: 0x0, symName: __ZNSt3__19make_pairB8ue170006IRPdS1_EENS_4pairINS_18__unwrap_ref_decayIT_E4typeENS4_IT0_E4typeEEEOS5_OS8_, symObjAddr: 0xC660, symBinAddr: 0x100010884, symSize: 0x38 }
  - { offsetInCU: 0x102DA, offset: 0x102DA, size: 0x8, addend: 0x0, symName: __ZNSt3__111__tree_leafB8ue170006IPNS_16__tree_node_baseIPvEEEET_S5_, symObjAddr: 0xD278, symBinAddr: 0x10001149C, symSize: 0x70 }
  - { offsetInCU: 0x1032D, offset: 0x1032D, size: 0x8, addend: 0x0, symName: __ZNSt3__1neB8ue170006ERKNS_15__tree_iteratorINS_12__value_typeINS_12basic_stringIcNS_11char_traitsIcEENS_9allocatorIcEEEENS_3mapIS7_NS_6vectorIdNS5_IdEEEENS_4lessIS7_EENS5_INS_4pairIKS7_SB_EEEEEEEEPNS_11__tree_nodeISJ_PvEElEESQ_, symObjAddr: 0xDE08, symBinAddr: 0x10001202C, symSize: 0x34 }
  - { offsetInCU: 0x1036A, offset: 0x1036A, size: 0x8, addend: 0x0, symName: __ZNSt3__1eqB8ue170006ERKNS_15__tree_iteratorINS_12__value_typeINS_12basic_stringIcNS_11char_traitsIcEENS_9allocatorIcEEEENS_3mapIS7_NS_6vectorIdNS5_IdEEEENS_4lessIS7_EENS5_INS_4pairIKS7_SB_EEEEEEEEPNS_11__tree_nodeISJ_PvEElEESQ_, symObjAddr: 0xDEEC, symBinAddr: 0x100012110, symSize: 0x30 }
  - { offsetInCU: 0x103A7, offset: 0x103A7, size: 0x8, addend: 0x0, symName: __ZNSt3__116forward_as_tupleB8ue170006IJRKNS_12basic_stringIcNS_11char_traitsIcEENS_9allocatorIcEEEEEEENS_5tupleIJDpOT_EEESC_, symObjAddr: 0xE03C, symBinAddr: 0x100012260, symSize: 0x2C }
  - { offsetInCU: 0x103E0, offset: 0x103E0, size: 0x8, addend: 0x0, symName: __ZNSt3__13getB8ue170006ILm0EJRKNS_12basic_stringIcNS_11char_traitsIcEENS_9allocatorIcEEEEEEERNS_13tuple_elementIXT_ENS_5tupleIJDpT0_EEEE4typeERSD_, symObjAddr: 0xE2D8, symBinAddr: 0x1000124FC, symSize: 0x24 }
  - { offsetInCU: 0x1046B, offset: 0x1046B, size: 0x8, addend: 0x0, symName: __ZNSt3__18distanceB8ue170006IPdEENS_15iterator_traitsIT_E15difference_typeES3_S3_, symObjAddr: 0xE9D4, symBinAddr: 0x100012BF8, symSize: 0x2C }
  - { offsetInCU: 0x104AE, offset: 0x104AE, size: 0x8, addend: 0x0, symName: __ZNSt3__14nextB8ue170006IPdEENS_9enable_ifIXsr29__has_input_iterator_categoryIT_EE5valueES3_E4typeES3_NS_15iterator_traitsIS3_E15difference_typeE, symObjAddr: 0xEA00, symBinAddr: 0x100012C24, symSize: 0x34 }
  - { offsetInCU: 0x104F1, offset: 0x104F1, size: 0x8, addend: 0x0, symName: __ZNSt3__121__convert_to_integralB8ue170006El, symObjAddr: 0xEC00, symBinAddr: 0x100012E24, symSize: 0x14 }
  - { offsetInCU: 0x1051D, offset: 0x1051D, size: 0x8, addend: 0x0, symName: __ZNSt3__19__advanceB8ue170006IPdEEvRT_NS_15iterator_traitsIS2_E15difference_typeENS_26random_access_iterator_tagE, symObjAddr: 0xEC14, symBinAddr: 0x100012E38, symSize: 0x28 }
  - { offsetInCU: 0x10566, offset: 0x10566, size: 0x8, addend: 0x0, symName: __ZNSt3__13maxB8ue170006ImEERKT_S3_S3_, symObjAddr: 0xED34, symBinAddr: 0x100012F58, symSize: 0x2C }
  - { offsetInCU: 0x105A9, offset: 0x105A9, size: 0x8, addend: 0x0, symName: __ZNSt3__13maxB8ue170006ImNS_6__lessIvvEEEERKT_S5_S5_T0_, symObjAddr: 0xED60, symBinAddr: 0x100012F84, symSize: 0x54 }
  - { offsetInCU: 0x10603, offset: 0x10603, size: 0x8, addend: 0x0, symName: __ZNSt3__110__distanceB8ue170006IPdEENS_15iterator_traitsIT_E15difference_typeES3_S3_NS_26random_access_iterator_tagE, symObjAddr: 0xEDB4, symBinAddr: 0x100012FD8, symSize: 0x28 }
  - { offsetInCU: 0x10650, offset: 0x10650, size: 0x8, addend: 0x0, symName: __ZNSt3__116__pad_and_outputB8ue170006IcNS_11char_traitsIcEEEENS_19ostreambuf_iteratorIT_T0_EES6_PKS4_S8_S8_RNS_8ios_baseES4_, symObjAddr: 0xEFE4, symBinAddr: 0x100013208, symSize: 0x240 }
  - { offsetInCU: 0x1071F, offset: 0x1071F, size: 0x8, addend: 0x0, symName: __ZNSt3__19use_facetB8ue170006INS_5ctypeIcEEEERKT_RKNS_6localeE, symObjAddr: 0xF570, symBinAddr: 0x100013794, symSize: 0x2C }
  - { offsetInCU: 0x10BEC, offset: 0x10BEC, size: 0x8, addend: 0x0, symName: __ZNSt3__122__make_exception_guardB8ue170006INS_6vectorINS1_IdNS_9allocatorIdEEEENS2_IS4_EEE16__destroy_vectorEEENS_28__exception_guard_exceptionsIT_EES9_, symObjAddr: 0xFB10, symBinAddr: 0x100013D34, symSize: 0x40 }
  - { offsetInCU: 0x10C21, offset: 0x10C21, size: 0x8, addend: 0x0, symName: __ZNSt3__119__allocate_at_leastB8ue170006INS_9allocatorINS_6vectorIdNS1_IdEEEEEEEENS_19__allocation_resultINS_16allocator_traitsIT_E7pointerEEERS8_m, symObjAddr: 0xFF0C, symBinAddr: 0x100014130, symSize: 0x40 }
  - { offsetInCU: 0x10C64, offset: 0x10C64, size: 0x8, addend: 0x0, symName: __ZNSt3__112__to_addressB8ue170006INS_6vectorIdNS_9allocatorIdEEEEEEPT_S6_, symObjAddr: 0x10254, symBinAddr: 0x100014478, symSize: 0x14 }
  - { offsetInCU: 0x10C99, offset: 0x10C99, size: 0x8, addend: 0x0, symName: __ZNSt3__122__make_exception_guardB8ue170006INS_6vectorIiNS_9allocatorIiEEE16__destroy_vectorEEENS_28__exception_guard_exceptionsIT_EES7_, symObjAddr: 0x108B4, symBinAddr: 0x100014AD8, symSize: 0x40 }
  - { offsetInCU: 0x10CCE, offset: 0x10CCE, size: 0x8, addend: 0x0, symName: __ZNSt3__119__allocate_at_leastB8ue170006INS_9allocatorIiEEEENS_19__allocation_resultINS_16allocator_traitsIT_E7pointerEEERS5_m, symObjAddr: 0x10CA8, symBinAddr: 0x100014ECC, symSize: 0x40 }
  - { offsetInCU: 0x10D11, offset: 0x10D11, size: 0x8, addend: 0x0, symName: __ZNSt3__112__to_addressB8ue170006IiEEPT_S2_, symObjAddr: 0x10FCC, symBinAddr: 0x1000151F0, symSize: 0x14 }
  - { offsetInCU: 0x10D46, offset: 0x10D46, size: 0x8, addend: 0x0, symName: __ZNSt3__142__uninitialized_allocator_move_if_noexceptB8ue170006INS_9allocatorIdEENS_16reverse_iteratorIPdEES5_dvEET1_RT_T0_S9_S6_, symObjAddr: 0x11B04, symBinAddr: 0x100015D28, symSize: 0x78 }
  - { offsetInCU: 0x10DC3, offset: 0x10DC3, size: 0x8, addend: 0x0, symName: __ZNSt3__14swapB8ue170006IPdEENS_9enable_ifIXaasr21is_move_constructibleIT_EE5valuesr18is_move_assignableIS3_EE5valueEvE4typeERS3_S6_, symObjAddr: 0x11BC8, symBinAddr: 0x100015DEC, symSize: 0x3C }
  - { offsetInCU: 0x10E14, offset: 0x10E14, size: 0x8, addend: 0x0, symName: __ZNSt3__14moveB8ue170006INS_16reverse_iteratorIPdEES3_EET0_T_S5_S4_, symObjAddr: 0x11C04, symBinAddr: 0x100015E28, symSize: 0x78 }
  - { offsetInCU: 0x10E6E, offset: 0x10E6E, size: 0x8, addend: 0x0, symName: __ZNSt3__16__moveB8ue170006INS_17_ClassicAlgPolicyENS_16reverse_iteratorIPdEES4_S4_EENS_4pairIT0_T2_EES6_T1_S7_, symObjAddr: 0x11C7C, symBinAddr: 0x100015EA0, symSize: 0x64 }
  - { offsetInCU: 0x10EDA, offset: 0x10EDA, size: 0x8, addend: 0x0, symName: __ZNSt3__123__dispatch_copy_or_moveB8ue170006INS_17_ClassicAlgPolicyENS_11__move_loopIS1_EENS_14__move_trivialENS_16reverse_iteratorIPdEES7_S7_EENS_4pairIT2_T4_EES9_T3_SA_, symObjAddr: 0x11CE0, symBinAddr: 0x100015F04, symSize: 0x64 }
  - { offsetInCU: 0x10F58, offset: 0x10F58, size: 0x8, addend: 0x0, symName: __ZNSt3__121__unwrap_and_dispatchB8ue170006INS_10__overloadINS_11__move_loopINS_17_ClassicAlgPolicyEEENS_14__move_trivialEEENS_16reverse_iteratorIPdEES9_S9_Li0EEENS_4pairIT0_T2_EESB_T1_SC_, symObjAddr: 0x11D44, symBinAddr: 0x100015F68, symSize: 0x12C }
  - { offsetInCU: 0x10FE8, offset: 0x10FE8, size: 0x8, addend: 0x0, symName: __ZNSt3__114__unwrap_rangeB8ue170006INS_16reverse_iteratorIPdEES3_EENS_4pairIT0_S5_EET_S7_, symObjAddr: 0x11E70, symBinAddr: 0x100016094, symSize: 0x84 }
  - { offsetInCU: 0x11163, offset: 0x11163, size: 0x8, addend: 0x0, symName: __ZNSt3__113__unwrap_iterB8ue170006INS_16reverse_iteratorIPdEENS_18__unwrap_iter_implIS3_Lb0EEELi0EEEDTclsrT0_8__unwrapclsr3stdE7declvalIT_EEEES7_, symObjAddr: 0x11F94, symBinAddr: 0x1000161B8, symSize: 0x44 }
  - { offsetInCU: 0x111A7, offset: 0x111A7, size: 0x8, addend: 0x0, symName: __ZNSt3__19make_pairB8ue170006INS_16reverse_iteratorIPdEES3_EENS_4pairINS_18__unwrap_ref_decayIT_E4typeENS5_IT0_E4typeEEEOS6_OS9_, symObjAddr: 0x11FD8, symBinAddr: 0x1000161FC, symSize: 0x38 }
  - { offsetInCU: 0x111F6, offset: 0x111F6, size: 0x8, addend: 0x0, symName: __ZNSt3__114__rewrap_rangeB8ue170006INS_16reverse_iteratorIPdEES3_EET_S4_T0_, symObjAddr: 0x12010, symBinAddr: 0x100016234, symSize: 0x5C }
  - { offsetInCU: 0x11242, offset: 0x11242, size: 0x8, addend: 0x0, symName: __ZNSt3__113__rewrap_iterB8ue170006INS_16reverse_iteratorIPdEES3_NS_18__unwrap_iter_implIS3_Lb0EEEEET_S6_T0_, symObjAddr: 0x1206C, symBinAddr: 0x100016290, symSize: 0x74 }
  - { offsetInCU: 0x11297, offset: 0x11297, size: 0x8, addend: 0x0, symName: __ZNSt3__1neB8ue170006IPdS1_EEbRKNS_16reverse_iteratorIT_EERKNS2_IT0_EE, symObjAddr: 0x120E0, symBinAddr: 0x100016304, symSize: 0x48 }
  - { offsetInCU: 0x11932, offset: 0x11932, size: 0x8, addend: 0x0, symName: __ZSt28__throw_bad_array_new_lengthB8ue170006v, symObjAddr: 0x98C8, symBinAddr: 0x10000DAEC, symSize: 0x34 }
  - { offsetInCU: 0x1294B, offset: 0x1294B, size: 0x8, addend: 0x0, symName: __ZNSt3__16vectorIdNS_9allocatorIdEEE26__swap_out_circular_bufferERNS_14__split_bufferIdRS2_EE, symObjAddr: 0x116D0, symBinAddr: 0x1000158F4, symSize: 0x110 }
  - { offsetInCU: 0x129A1, offset: 0x129A1, size: 0x8, addend: 0x0, symName: __Z3powB8ue170006IiiENSt3__19enable_ifIXaasr3std13is_arithmeticIT_EE5valuesr3std13is_arithmeticIT0_EE5valueENS0_9__promoteIS2_S3_vEEE4type4typeES2_S3_, symObjAddr: 0x7848, symBinAddr: 0x10000BA6C, symSize: 0x44 }
  - { offsetInCU: 0x12A1E, offset: 0x12A1E, size: 0x8, addend: 0x0, symName: __Z3powB8ue170006IdiENSt3__19enable_ifIXaasr3std13is_arithmeticIT_EE5valuesr3std13is_arithmeticIT0_EE5valueENS0_9__promoteIS2_S3_vEEE4type4typeES2_S3_, symObjAddr: 0x788C, symBinAddr: 0x10000BAB0, symSize: 0x38 }
  - { offsetInCU: 0x14DA3, offset: 0x14DA3, size: 0x8, addend: 0x0, symName: _main, symObjAddr: 0x0, symBinAddr: 0x100004224, symSize: 0x7040 }
  - { offsetInCU: 0x15435, offset: 0x15435, size: 0x8, addend: 0x0, symName: __ZNSt3__13mapINS_12basic_stringIcNS_11char_traitsIcEENS_9allocatorIcEEEENS0_IS6_NS_6vectorIdNS4_IdEEEENS_4lessIS6_EENS4_INS_4pairIKS6_S9_EEEEEESB_NS4_INSC_ISD_SG_EEEEEC1B8ue170006Ev, symObjAddr: 0x7040, symBinAddr: 0x10000B264, symSize: 0x2C }
  - { offsetInCU: 0x15464, offset: 0x15464, size: 0x8, addend: 0x0, symName: __ZNSt3__112basic_stringIcNS_11char_traitsIcEENS_9allocatorIcEEEC1B8ue170006ILi0EEEPKc, symObjAddr: 0x706C, symBinAddr: 0x10000B290, symSize: 0x34 }
  - { offsetInCU: 0x154A3, offset: 0x154A3, size: 0x8, addend: 0x0, symName: __ZNSt3__16vectorIdNS_9allocatorIdEEEC1B8ue170006ESt16initializer_listIdE, symObjAddr: 0x70A0, symBinAddr: 0x10000B2C4, symSize: 0x3C }
  - { offsetInCU: 0x154DE, offset: 0x154DE, size: 0x8, addend: 0x0, symName: __ZNSt3__14pairIKNS_12basic_stringIcNS_11char_traitsIcEENS_9allocatorIcEEEENS_6vectorIdNS4_IdEEEEEC1B8ue170006ILb1ELPv0EEERS7_RKSA_, symObjAddr: 0x70DC, symBinAddr: 0x10000B300, symSize: 0x3C }
  - { offsetInCU: 0x15534, offset: 0x15534, size: 0x8, addend: 0x0, symName: __ZNSt3__13mapINS_12basic_stringIcNS_11char_traitsIcEENS_9allocatorIcEEEENS0_IS6_NS_6vectorIdNS4_IdEEEENS_4lessIS6_EENS4_INS_4pairIKS6_S9_EEEEEESB_NS4_INSC_ISD_SG_EEEEEixEOS6_, symObjAddr: 0x7118, symBinAddr: 0x10000B33C, symSize: 0x80 }
  - { offsetInCU: 0x1556B, offset: 0x1556B, size: 0x8, addend: 0x0, symName: __ZNSt3__13mapINS_12basic_stringIcNS_11char_traitsIcEENS_9allocatorIcEEEENS_6vectorIdNS4_IdEEEENS_4lessIS6_EENS4_INS_4pairIKS6_S9_EEEEEaSB8ue170006ESt16initializer_listISE_E, symObjAddr: 0x7198, symBinAddr: 0x10000B3BC, symSize: 0x60 }
  - { offsetInCU: 0x155A0, offset: 0x155A0, size: 0x8, addend: 0x0, symName: __ZNSt3__14pairIKNS_12basic_stringIcNS_11char_traitsIcEENS_9allocatorIcEEEENS_6vectorIdNS4_IdEEEEED1Ev, symObjAddr: 0x71F8, symBinAddr: 0x10000B41C, symSize: 0x2C }
  - { offsetInCU: 0x155CC, offset: 0x155CC, size: 0x8, addend: 0x0, symName: __ZNSt3__16vectorIdNS_9allocatorIdEEED1B8ue170006Ev, symObjAddr: 0x7224, symBinAddr: 0x10000B448, symSize: 0x2C }
  - { offsetInCU: 0x155F6, offset: 0x155F6, size: 0x8, addend: 0x0, symName: __ZNSt3__16vectorIdNS_9allocatorIdEEEC1B8ue170006Ev, symObjAddr: 0x7250, symBinAddr: 0x10000B474, symSize: 0x2C }
  - { offsetInCU: 0x15620, offset: 0x15620, size: 0x8, addend: 0x0, symName: __ZNSt3__13mapINS_12basic_stringIcNS_11char_traitsIcEENS_9allocatorIcEEEENS0_IS6_NS_6vectorIdNS4_IdEEEENS_4lessIS6_EENS4_INS_4pairIKS6_S9_EEEEEESB_NS4_INSC_ISD_SG_EEEEE4findB8ue170006ERSD_, symObjAddr: 0x7358, symBinAddr: 0x10000B57C, symSize: 0x40 }
  - { offsetInCU: 0x15655, offset: 0x15655, size: 0x8, addend: 0x0, symName: __ZNSt3__13mapINS_12basic_stringIcNS_11char_traitsIcEENS_9allocatorIcEEEENS0_IS6_NS_6vectorIdNS4_IdEEEENS_4lessIS6_EENS4_INS_4pairIKS6_S9_EEEEEESB_NS4_INSC_ISD_SG_EEEEE3endB8ue170006Ev, symObjAddr: 0x7398, symBinAddr: 0x10000B5BC, symSize: 0x38 }
  - { offsetInCU: 0x1567B, offset: 0x1567B, size: 0x8, addend: 0x0, symName: __ZNSt3__13mapINS_12basic_stringIcNS_11char_traitsIcEENS_9allocatorIcEEEENS0_IS6_NS_6vectorIdNS4_IdEEEENS_4lessIS6_EENS4_INS_4pairIKS6_S9_EEEEEESB_NS4_INSC_ISD_SG_EEEEEixERSD_, symObjAddr: 0x73D0, symBinAddr: 0x10000B5F4, symSize: 0x80 }
  - { offsetInCU: 0x156B2, offset: 0x156B2, size: 0x8, addend: 0x0, symName: __ZNSt3__13mapINS_12basic_stringIcNS_11char_traitsIcEENS_9allocatorIcEEEENS_6vectorIdNS4_IdEEEENS_4lessIS6_EENS4_INS_4pairIKS6_S9_EEEEEixEOS6_, symObjAddr: 0x7450, symBinAddr: 0x10000B674, symSize: 0x80 }
  - { offsetInCU: 0x156E9, offset: 0x156E9, size: 0x8, addend: 0x0, symName: __ZNSt3__16vectorIdNS_9allocatorIdEEEixB8ue170006Em, symObjAddr: 0x74D0, symBinAddr: 0x10000B6F4, symSize: 0x24 }
  - { offsetInCU: 0x15720, offset: 0x15720, size: 0x8, addend: 0x0, symName: __ZNSt3__16vectorIdNS_9allocatorIdEEEaSB8ue170006ERKS3_, symObjAddr: 0x74F4, symBinAddr: 0x10000B718, symSize: 0x68 }
  - { offsetInCU: 0x15757, offset: 0x15757, size: 0x8, addend: 0x0, symName: __ZNSt3__113basic_ostreamIcNS_11char_traitsIcEEElsB8ue170006EPFRS3_S4_E, symObjAddr: 0x75A4, symBinAddr: 0x10000B7C8, symSize: 0x2C }
  - { offsetInCU: 0x1578B, offset: 0x1578B, size: 0x8, addend: 0x0, symName: __ZNSt3__16vectorIdNS_9allocatorIdEEEC1Em, symObjAddr: 0x7628, symBinAddr: 0x10000B84C, symSize: 0x34 }
  - { offsetInCU: 0x157C6, offset: 0x157C6, size: 0x8, addend: 0x0, symName: __ZNSt3__16vectorIdNS_9allocatorIdEEEC1EmRKd, symObjAddr: 0x765C, symBinAddr: 0x10000B880, symSize: 0x3C }
  - { offsetInCU: 0x15810, offset: 0x15810, size: 0x8, addend: 0x0, symName: __ZNSt3__16vectorINS0_IdNS_9allocatorIdEEEENS1_IS3_EEEC1EmRKS3_, symObjAddr: 0x7698, symBinAddr: 0x10000B8BC, symSize: 0x3C }
  - { offsetInCU: 0x1585A, offset: 0x1585A, size: 0x8, addend: 0x0, symName: __ZNSt3__16vectorINS0_IdNS_9allocatorIdEEEENS1_IS3_EEEixB8ue170006Em, symObjAddr: 0x76D4, symBinAddr: 0x10000B8F8, symSize: 0x2C }
  - { offsetInCU: 0x15891, offset: 0x15891, size: 0x8, addend: 0x0, symName: __ZNSt3__16vectorIiNS_9allocatorIiEEEC1EmRKi, symObjAddr: 0x7700, symBinAddr: 0x10000B924, symSize: 0x3C }
  - { offsetInCU: 0x158DB, offset: 0x158DB, size: 0x8, addend: 0x0, symName: __ZNSt3__16vectorIiNS_9allocatorIiEEEixB8ue170006Em, symObjAddr: 0x773C, symBinAddr: 0x10000B960, symSize: 0x24 }
  - { offsetInCU: 0x15912, offset: 0x15912, size: 0x8, addend: 0x0, symName: __ZNSt3__16vectorIdNS_9allocatorIdEEE6resizeEm, symObjAddr: 0x7760, symBinAddr: 0x10000B984, symSize: 0x94 }
  - { offsetInCU: 0x15958, offset: 0x15958, size: 0x8, addend: 0x0, symName: __ZNSt3__16vectorIiNS_9allocatorIiEEED1B8ue170006Ev, symObjAddr: 0x77F4, symBinAddr: 0x10000BA18, symSize: 0x2C }
  - { offsetInCU: 0x15982, offset: 0x15982, size: 0x8, addend: 0x0, symName: __ZNKSt3__16vectorIdNS_9allocatorIdEEE4sizeB8ue170006Ev, symObjAddr: 0x7820, symBinAddr: 0x10000BA44, symSize: 0x28 }
  - { offsetInCU: 0x159A7, offset: 0x159A7, size: 0x8, addend: 0x0, symName: __Z3absB8ue170006d, symObjAddr: 0x78C4, symBinAddr: 0x10000BAE8, symSize: 0x18 }
  - { offsetInCU: 0x15A70, offset: 0x15A70, size: 0x8, addend: 0x0, symName: __ZNSt3__114basic_ofstreamIcNS_11char_traitsIcEEEC1EPKcj, symObjAddr: 0x78DC, symBinAddr: 0x10000BB00, symSize: 0x16C }
  - { offsetInCU: 0x15ABA, offset: 0x15ABA, size: 0x8, addend: 0x0, symName: __ZNSt3__114basic_ofstreamIcNS_11char_traitsIcEEE5closeEv, symObjAddr: 0x7A48, symBinAddr: 0x10000BC6C, symSize: 0x58 }
  - { offsetInCU: 0x15AE2, offset: 0x15AE2, size: 0x8, addend: 0x0, symName: __ZNSt3__113basic_ostreamIcNS_11char_traitsIcEEElsB8ue170006EPFRNS_8ios_baseES5_E, symObjAddr: 0x7AA0, symBinAddr: 0x10000BCC4, symSize: 0x40 }
  - { offsetInCU: 0x15B1B, offset: 0x15B1B, size: 0x8, addend: 0x0, symName: __ZNSt3__114basic_ofstreamIcNS_11char_traitsIcEEED1Ev, symObjAddr: 0x7BA8, symBinAddr: 0x10000BDCC, symSize: 0x40 }
  - { offsetInCU: 0x15B48, offset: 0x15B48, size: 0x8, addend: 0x0, symName: __ZNSt3__16vectorINS0_IdNS_9allocatorIdEEEENS1_IS3_EEED1B8ue170006Ev, symObjAddr: 0x7BE8, symBinAddr: 0x10000BE0C, symSize: 0x2C }
  - { offsetInCU: 0x15B72, offset: 0x15B72, size: 0x8, addend: 0x0, symName: __ZNSt3__13mapINS_12basic_stringIcNS_11char_traitsIcEENS_9allocatorIcEEEENS0_IS6_NS_6vectorIdNS4_IdEEEENS_4lessIS6_EENS4_INS_4pairIKS6_S9_EEEEEESB_NS4_INSC_ISD_SG_EEEEED1B8ue170006Ev, symObjAddr: 0x7C14, symBinAddr: 0x10000BE38, symSize: 0x2C }
  - { offsetInCU: 0x15B9C, offset: 0x15B9C, size: 0x8, addend: 0x0, symName: __ZNSt3__14pairIKNS_12basic_stringIcNS_11char_traitsIcEENS_9allocatorIcEEEENS_6vectorIdNS4_IdEEEEED2Ev, symObjAddr: 0x7C40, symBinAddr: 0x10000BE64, symSize: 0x38 }
  - { offsetInCU: 0x15BC8, offset: 0x15BC8, size: 0x8, addend: 0x0, symName: __ZNSt3__18ios_base6unsetfB8ue170006Ej, symObjAddr: 0x7C78, symBinAddr: 0x10000BE9C, symSize: 0x28 }
  - { offsetInCU: 0x15BFF, offset: 0x15BFF, size: 0x8, addend: 0x0, symName: __ZNSt3__18ios_base4setfB8ue170006Ejj, symObjAddr: 0x7CA0, symBinAddr: 0x10000BEC4, symSize: 0x5C }
  - { offsetInCU: 0x15C54, offset: 0x15C54, size: 0x8, addend: 0x0, symName: __ZNSt3__18__iom_t5C1B8ue170006Ei, symObjAddr: 0x7CFC, symBinAddr: 0x10000BF20, symSize: 0x34 }
  - { offsetInCU: 0x15C8C, offset: 0x15C8C, size: 0x8, addend: 0x0, symName: __ZNSt3__18__iom_t5C2B8ue170006Ei, symObjAddr: 0x7D30, symBinAddr: 0x10000BF54, symSize: 0x20 }
  - { offsetInCU: 0x15CC4, offset: 0x15CC4, size: 0x8, addend: 0x0, symName: __ZNSt3__114basic_ofstreamIcNS_11char_traitsIcEEED2Ev, symObjAddr: 0x7D50, symBinAddr: 0x10000BF74, symSize: 0x64 }
  - { offsetInCU: 0x15CFE, offset: 0x15CFE, size: 0x8, addend: 0x0, symName: __ZTv0_n24_NSt3__114basic_ofstreamIcNS_11char_traitsIcEEED1Ev, symObjAddr: 0x7DB4, symBinAddr: 0x10000BFD8, symSize: 0x28 }
  - { offsetInCU: 0x15D15, offset: 0x15D15, size: 0x8, addend: 0x0, symName: __ZNSt3__13mapINS_12basic_stringIcNS_11char_traitsIcEENS_9allocatorIcEEEENS0_IS6_NS_6vectorIdNS4_IdEEEENS_4lessIS6_EENS4_INS_4pairIKS6_S9_EEEEEESB_NS4_INSC_ISD_SG_EEEEEC2B8ue170006Ev, symObjAddr: 0x7DDC, symBinAddr: 0x10000C000, symSize: 0x40 }
  - { offsetInCU: 0x15D3F, offset: 0x15D3F, size: 0x8, addend: 0x0, symName: __ZNSt3__119__map_value_compareINS_12basic_stringIcNS_11char_traitsIcEENS_9allocatorIcEEEENS_12__value_typeIS6_NS_3mapIS6_NS_6vectorIdNS4_IdEEEENS_4lessIS6_EENS4_INS_4pairIKS6_SB_EEEEEEEESD_Lb1EEC1B8ue170006ESD_, symObjAddr: 0x7E1C, symBinAddr: 0x10000C040, symSize: 0x2C }
  - { offsetInCU: 0x15D78, offset: 0x15D78, size: 0x8, addend: 0x0, symName: __ZNSt3__16__treeINS_12__value_typeINS_12basic_stringIcNS_11char_traitsIcEENS_9allocatorIcEEEENS_3mapIS7_NS_6vectorIdNS5_IdEEEENS_4lessIS7_EENS5_INS_4pairIKS7_SB_EEEEEEEENS_19__map_value_compareIS7_SJ_SD_Lb1EEENS5_ISJ_EEEC1ERKSL_, symObjAddr: 0x7E48, symBinAddr: 0x10000C06C, symSize: 0x34 }
  - { offsetInCU: 0x15DB3, offset: 0x15DB3, size: 0x8, addend: 0x0, symName: __ZNSt3__119__map_value_compareINS_12basic_stringIcNS_11char_traitsIcEENS_9allocatorIcEEEENS_12__value_typeIS6_NS_3mapIS6_NS_6vectorIdNS4_IdEEEENS_4lessIS6_EENS4_INS_4pairIKS6_SB_EEEEEEEESD_Lb1EEC2B8ue170006ESD_, symObjAddr: 0x7E7C, symBinAddr: 0x10000C0A0, symSize: 0x14 }
  - { offsetInCU: 0x15DEC, offset: 0x15DEC, size: 0x8, addend: 0x0, symName: __ZNSt3__16__treeINS_12__value_typeINS_12basic_stringIcNS_11char_traitsIcEENS_9allocatorIcEEEENS_3mapIS7_NS_6vectorIdNS5_IdEEEENS_4lessIS7_EENS5_INS_4pairIKS7_SB_EEEEEEEENS_19__map_value_compareIS7_SJ_SD_Lb1EEENS5_ISJ_EEEC2ERKSL_, symObjAddr: 0x7E90, symBinAddr: 0x10000C0B4, symSize: 0x7C }
  - { offsetInCU: 0x15E27, offset: 0x15E27, size: 0x8, addend: 0x0, symName: __ZNSt3__117__compressed_pairINS_15__tree_end_nodeIPNS_16__tree_node_baseIPvEEEENS_9allocatorINS_11__tree_nodeINS_12__value_typeINS_12basic_stringIcNS_11char_traitsIcEENS7_IcEEEENS_3mapISE_NS_6vectorIdNS7_IdEEEENS_4lessISE_EENS7_INS_4pairIKSE_SI_EEEEEEEES3_EEEEEC1B8ue170006ILb1EvEEv, symObjAddr: 0x7F0C, symBinAddr: 0x10000C130, symSize: 0x2C }
  - { offsetInCU: 0x15E62, offset: 0x15E62, size: 0x8, addend: 0x0, symName: __ZNSt3__117__compressed_pairImNS_19__map_value_compareINS_12basic_stringIcNS_11char_traitsIcEENS_9allocatorIcEEEENS_12__value_typeIS7_NS_3mapIS7_NS_6vectorIdNS5_IdEEEENS_4lessIS7_EENS5_INS_4pairIKS7_SC_EEEEEEEESE_Lb1EEEEC1B8ue170006IiRKSL_EEOT_OT0_, symObjAddr: 0x7F44, symBinAddr: 0x10000C168, symSize: 0x3C }
  - { offsetInCU: 0x15EBA, offset: 0x15EBA, size: 0x8, addend: 0x0, symName: __ZNSt3__16__treeINS_12__value_typeINS_12basic_stringIcNS_11char_traitsIcEENS_9allocatorIcEEEENS_3mapIS7_NS_6vectorIdNS5_IdEEEENS_4lessIS7_EENS5_INS_4pairIKS7_SB_EEEEEEEENS_19__map_value_compareIS7_SJ_SD_Lb1EEENS5_ISJ_EEE10__end_nodeB8ue170006Ev, symObjAddr: 0x7F80, symBinAddr: 0x10000C1A4, symSize: 0x2C }
  - { offsetInCU: 0x15EE0, offset: 0x15EE0, size: 0x8, addend: 0x0, symName: __ZNSt3__16__treeINS_12__value_typeINS_12basic_stringIcNS_11char_traitsIcEENS_9allocatorIcEEEENS_3mapIS7_NS_6vectorIdNS5_IdEEEENS_4lessIS7_EENS5_INS_4pairIKS7_SB_EEEEEEEENS_19__map_value_compareIS7_SJ_SD_Lb1EEENS5_ISJ_EEE12__begin_nodeB8ue170006Ev, symObjAddr: 0x7FAC, symBinAddr: 0x10000C1D0, symSize: 0x14 }
  - { offsetInCU: 0x15F06, offset: 0x15F06, size: 0x8, addend: 0x0, symName: __ZNSt3__117__compressed_pairINS_15__tree_end_nodeIPNS_16__tree_node_baseIPvEEEENS_9allocatorINS_11__tree_nodeINS_12__value_typeINS_12basic_stringIcNS_11char_traitsIcEENS7_IcEEEENS_3mapISE_NS_6vectorIdNS7_IdEEEENS_4lessISE_EENS7_INS_4pairIKSE_SI_EEEEEEEES3_EEEEEC2B8ue170006ILb1EvEEv, symObjAddr: 0x7FC0, symBinAddr: 0x10000C1E4, symSize: 0x34 }
  - { offsetInCU: 0x15F3B, offset: 0x15F3B, size: 0x8, addend: 0x0, symName: __ZNSt3__122__compressed_pair_elemINS_15__tree_end_nodeIPNS_16__tree_node_baseIPvEEEELi0ELb0EEC2B8ue170006ENS_16__value_init_tagE, symObjAddr: 0x7FF4, symBinAddr: 0x10000C218, symSize: 0x2C }
  - { offsetInCU: 0x15F6F, offset: 0x15F6F, size: 0x8, addend: 0x0, symName: __ZNSt3__122__compressed_pair_elemINS_9allocatorINS_11__tree_nodeINS_12__value_typeINS_12basic_stringIcNS_11char_traitsIcEENS1_IcEEEENS_3mapIS8_NS_6vectorIdNS1_IdEEEENS_4lessIS8_EENS1_INS_4pairIKS8_SC_EEEEEEEEPvEEEELi1ELb1EEC2B8ue170006ENS_16__value_init_tagE, symObjAddr: 0x8020, symBinAddr: 0x10000C244, symSize: 0x2C }
  - { offsetInCU: 0x15FA3, offset: 0x15FA3, size: 0x8, addend: 0x0, symName: __ZNSt3__115__tree_end_nodeIPNS_16__tree_node_baseIPvEEEC1B8ue170006Ev, symObjAddr: 0x804C, symBinAddr: 0x10000C270, symSize: 0x2C }
  - { offsetInCU: 0x15FCD, offset: 0x15FCD, size: 0x8, addend: 0x0, symName: __ZNSt3__115__tree_end_nodeIPNS_16__tree_node_baseIPvEEEC2B8ue170006Ev, symObjAddr: 0x8078, symBinAddr: 0x10000C29C, symSize: 0x18 }
  - { offsetInCU: 0x15FF7, offset: 0x15FF7, size: 0x8, addend: 0x0, symName: __ZNSt3__19allocatorINS_11__tree_nodeINS_12__value_typeINS_12basic_stringIcNS_11char_traitsIcEENS0_IcEEEENS_3mapIS7_NS_6vectorIdNS0_IdEEEENS_4lessIS7_EENS0_INS_4pairIKS7_SB_EEEEEEEEPvEEEC2B8ue170006Ev, symObjAddr: 0x8090, symBinAddr: 0x10000C2B4, symSize: 0x2C }
  - { offsetInCU: 0x16021, offset: 0x16021, size: 0x8, addend: 0x0, symName: __ZNSt3__116__non_trivial_ifILb1ENS_9allocatorINS_11__tree_nodeINS_12__value_typeINS_12basic_stringIcNS_11char_traitsIcEENS1_IcEEEENS_3mapIS8_NS_6vectorIdNS1_IdEEEENS_4lessIS8_EENS1_INS_4pairIKS8_SC_EEEEEEEEPvEEEEEC2B8ue170006Ev, symObjAddr: 0x80BC, symBinAddr: 0x10000C2E0, symSize: 0x14 }
  - { offsetInCU: 0x1604B, offset: 0x1604B, size: 0x8, addend: 0x0, symName: __ZNSt3__117__compressed_pairImNS_19__map_value_compareINS_12basic_stringIcNS_11char_traitsIcEENS_9allocatorIcEEEENS_12__value_typeIS7_NS_3mapIS7_NS_6vectorIdNS5_IdEEEENS_4lessIS7_EENS5_INS_4pairIKS7_SC_EEEEEEEESE_Lb1EEEEC2B8ue170006IiRKSL_EEOT_OT0_, symObjAddr: 0x80D0, symBinAddr: 0x10000C2F4, symSize: 0x44 }
  - { offsetInCU: 0x160A3, offset: 0x160A3, size: 0x8, addend: 0x0, symName: __ZNSt3__122__compressed_pair_elemImLi0ELb0EEC2B8ue170006IivEEOT_, symObjAddr: 0x8114, symBinAddr: 0x10000C338, symSize: 0x24 }
  - { offsetInCU: 0x160E5, offset: 0x160E5, size: 0x8, addend: 0x0, symName: __ZNSt3__122__compressed_pair_elemINS_19__map_value_compareINS_12basic_stringIcNS_11char_traitsIcEENS_9allocatorIcEEEENS_12__value_typeIS7_NS_3mapIS7_NS_6vectorIdNS5_IdEEEENS_4lessIS7_EENS5_INS_4pairIKS7_SC_EEEEEEEESE_Lb1EEELi1ELb1EEC2B8ue170006IRKSL_vEEOT_, symObjAddr: 0x8138, symBinAddr: 0x10000C35C, symSize: 0x18 }
  - { offsetInCU: 0x16127, offset: 0x16127, size: 0x8, addend: 0x0, symName: __ZNSt3__114pointer_traitsIPNS_15__tree_end_nodeIPNS_16__tree_node_baseIPvEEEEE10pointer_toB8ue170006ERS6_, symObjAddr: 0x8150, symBinAddr: 0x10000C374, symSize: 0x14 }
  - { offsetInCU: 0x1614A, offset: 0x1614A, size: 0x8, addend: 0x0, symName: __ZNSt3__117__compressed_pairINS_15__tree_end_nodeIPNS_16__tree_node_baseIPvEEEENS_9allocatorINS_11__tree_nodeINS_12__value_typeINS_12basic_stringIcNS_11char_traitsIcEENS7_IcEEEENS_3mapISE_NS_6vectorIdNS7_IdEEEENS_4lessISE_EENS7_INS_4pairIKSE_SI_EEEEEEEES3_EEEEE5firstB8ue170006Ev, symObjAddr: 0x8164, symBinAddr: 0x10000C388, symSize: 0x24 }
  - { offsetInCU: 0x16170, offset: 0x16170, size: 0x8, addend: 0x0, symName: __ZNSt3__122__compressed_pair_elemINS_15__tree_end_nodeIPNS_16__tree_node_baseIPvEEEELi0ELb0EE5__getB8ue170006Ev, symObjAddr: 0x8188, symBinAddr: 0x10000C3AC, symSize: 0x14 }
  - { offsetInCU: 0x16196, offset: 0x16196, size: 0x8, addend: 0x0, symName: __ZNSt3__13mapINS_12basic_stringIcNS_11char_traitsIcEENS_9allocatorIcEEEENS0_IS6_NS_6vectorIdNS4_IdEEEENS_4lessIS6_EENS4_INS_4pairIKS6_S9_EEEEEESB_NS4_INSC_ISD_SG_EEEEED2B8ue170006Ev, symObjAddr: 0x819C, symBinAddr: 0x10000C3C0, symSize: 0x2C }
  - { offsetInCU: 0x161C0, offset: 0x161C0, size: 0x8, addend: 0x0, symName: __ZNSt3__16__treeINS_12__value_typeINS_12basic_stringIcNS_11char_traitsIcEENS_9allocatorIcEEEENS_3mapIS7_NS_6vectorIdNS5_IdEEEENS_4lessIS7_EENS5_INS_4pairIKS7_SB_EEEEEEEENS_19__map_value_compareIS7_SJ_SD_Lb1EEENS5_ISJ_EEED1Ev, symObjAddr: 0x81C8, symBinAddr: 0x10000C3EC, symSize: 0x2C }
  - { offsetInCU: 0x161EC, offset: 0x161EC, size: 0x8, addend: 0x0, symName: __ZNSt3__16__treeINS_12__value_typeINS_12basic_stringIcNS_11char_traitsIcEENS_9allocatorIcEEEENS_3mapIS7_NS_6vectorIdNS5_IdEEEENS_4lessIS7_EENS5_INS_4pairIKS7_SB_EEEEEEEENS_19__map_value_compareIS7_SJ_SD_Lb1EEENS5_ISJ_EEED2Ev, symObjAddr: 0x81F4, symBinAddr: 0x10000C418, symSize: 0x38 }
  - { offsetInCU: 0x16218, offset: 0x16218, size: 0x8, addend: 0x0, symName: __ZNSt3__16__treeINS_12__value_typeINS_12basic_stringIcNS_11char_traitsIcEENS_9allocatorIcEEEENS_3mapIS7_NS_6vectorIdNS5_IdEEEENS_4lessIS7_EENS5_INS_4pairIKS7_SB_EEEEEEEENS_19__map_value_compareIS7_SJ_SD_Lb1EEENS5_ISJ_EEE7destroyEPNS_11__tree_nodeISJ_PvEE, symObjAddr: 0x822C, symBinAddr: 0x10000C450, symSize: 0xAC }
  - { offsetInCU: 0x16264, offset: 0x16264, size: 0x8, addend: 0x0, symName: __ZNKSt3__16__treeINS_12__value_typeINS_12basic_stringIcNS_11char_traitsIcEENS_9allocatorIcEEEENS_3mapIS7_NS_6vectorIdNS5_IdEEEENS_4lessIS7_EENS5_INS_4pairIKS7_SB_EEEEEEEENS_19__map_value_compareIS7_SJ_SD_Lb1EEENS5_ISJ_EEE6__rootB8ue170006Ev, symObjAddr: 0x82D8, symBinAddr: 0x10000C4FC, symSize: 0x28 }
  - { offsetInCU: 0x1628A, offset: 0x1628A, size: 0x8, addend: 0x0, symName: __ZNSt3__16__treeINS_12__value_typeINS_12basic_stringIcNS_11char_traitsIcEENS_9allocatorIcEEEENS_3mapIS7_NS_6vectorIdNS5_IdEEEENS_4lessIS7_EENS5_INS_4pairIKS7_SB_EEEEEEEENS_19__map_value_compareIS7_SJ_SD_Lb1EEENS5_ISJ_EEE12__node_allocB8ue170006Ev, symObjAddr: 0x8300, symBinAddr: 0x10000C524, symSize: 0x28 }
  - { offsetInCU: 0x162B0, offset: 0x162B0, size: 0x8, addend: 0x0, symName: __ZNSt3__116allocator_traitsINS_9allocatorINS_11__tree_nodeINS_12__value_typeINS_12basic_stringIcNS_11char_traitsIcEENS1_IcEEEENS_3mapIS8_NS_6vectorIdNS1_IdEEEENS_4lessIS8_EENS1_INS_4pairIKS8_SC_EEEEEEEEPvEEEEE7destroyB8ue170006INSF_ISG_SJ_EEvvEEvRSN_PT_, symObjAddr: 0x8328, symBinAddr: 0x10000C54C, symSize: 0x28 }
  - { offsetInCU: 0x162EA, offset: 0x162EA, size: 0x8, addend: 0x0, symName: __ZNSt3__122__tree_key_value_typesINS_12__value_typeINS_12basic_stringIcNS_11char_traitsIcEENS_9allocatorIcEEEENS_3mapIS7_NS_6vectorIdNS5_IdEEEENS_4lessIS7_EENS5_INS_4pairIKS7_SB_EEEEEEEEE9__get_ptrB8ue170006ERSJ_, symObjAddr: 0x8350, symBinAddr: 0x10000C574, symSize: 0x24 }
  - { offsetInCU: 0x1630E, offset: 0x1630E, size: 0x8, addend: 0x0, symName: __ZNSt3__116allocator_traitsINS_9allocatorINS_11__tree_nodeINS_12__value_typeINS_12basic_stringIcNS_11char_traitsIcEENS1_IcEEEENS_3mapIS8_NS_6vectorIdNS1_IdEEEENS_4lessIS8_EENS1_INS_4pairIKS8_SC_EEEEEEEEPvEEEEE10deallocateB8ue170006ERSN_PSM_m, symObjAddr: 0x8374, symBinAddr: 0x10000C598, symSize: 0x34 }
  - { offsetInCU: 0x16350, offset: 0x16350, size: 0x8, addend: 0x0, symName: __ZNSt3__117__compressed_pairINS_15__tree_end_nodeIPNS_16__tree_node_baseIPvEEEENS_9allocatorINS_11__tree_nodeINS_12__value_typeINS_12basic_stringIcNS_11char_traitsIcEENS7_IcEEEENS_3mapISE_NS_6vectorIdNS7_IdEEEENS_4lessISE_EENS7_INS_4pairIKSE_SI_EEEEEEEES3_EEEEE6secondB8ue170006Ev, symObjAddr: 0x83A8, symBinAddr: 0x10000C5CC, symSize: 0x24 }
  - { offsetInCU: 0x16376, offset: 0x16376, size: 0x8, addend: 0x0, symName: __ZNSt3__122__compressed_pair_elemINS_9allocatorINS_11__tree_nodeINS_12__value_typeINS_12basic_stringIcNS_11char_traitsIcEENS1_IcEEEENS_3mapIS8_NS_6vectorIdNS1_IdEEEENS_4lessIS8_EENS1_INS_4pairIKS8_SC_EEEEEEEEPvEEEELi1ELb1EE5__getB8ue170006Ev, symObjAddr: 0x83CC, symBinAddr: 0x10000C5F0, symSize: 0x14 }
  - { offsetInCU: 0x1639C, offset: 0x1639C, size: 0x8, addend: 0x0, symName: __ZNSt3__14pairIKNS_12basic_stringIcNS_11char_traitsIcEENS_9allocatorIcEEEENS_3mapIS6_NS_6vectorIdNS4_IdEEEENS_4lessIS6_EENS4_INS0_IS7_SB_EEEEEEED1Ev, symObjAddr: 0x83E0, symBinAddr: 0x10000C604, symSize: 0x2C }
  - { offsetInCU: 0x163C8, offset: 0x163C8, size: 0x8, addend: 0x0, symName: __ZNSt3__14pairIKNS_12basic_stringIcNS_11char_traitsIcEENS_9allocatorIcEEEENS_3mapIS6_NS_6vectorIdNS4_IdEEEENS_4lessIS6_EENS4_INS0_IS7_SB_EEEEEEED2Ev, symObjAddr: 0x840C, symBinAddr: 0x10000C630, symSize: 0x38 }
  - { offsetInCU: 0x163F4, offset: 0x163F4, size: 0x8, addend: 0x0, symName: __ZNSt3__13mapINS_12basic_stringIcNS_11char_traitsIcEENS_9allocatorIcEEEENS_6vectorIdNS4_IdEEEENS_4lessIS6_EENS4_INS_4pairIKS6_S9_EEEEED1B8ue170006Ev, symObjAddr: 0x8444, symBinAddr: 0x10000C668, symSize: 0x2C }
  - { offsetInCU: 0x1641E, offset: 0x1641E, size: 0x8, addend: 0x0, symName: __ZNSt3__13mapINS_12basic_stringIcNS_11char_traitsIcEENS_9allocatorIcEEEENS_6vectorIdNS4_IdEEEENS_4lessIS6_EENS4_INS_4pairIKS6_S9_EEEEED2B8ue170006Ev, symObjAddr: 0x8470, symBinAddr: 0x10000C694, symSize: 0x2C }
  - { offsetInCU: 0x16448, offset: 0x16448, size: 0x8, addend: 0x0, symName: __ZNSt3__16__treeINS_12__value_typeINS_12basic_stringIcNS_11char_traitsIcEENS_9allocatorIcEEEENS_6vectorIdNS5_IdEEEEEENS_19__map_value_compareIS7_SB_NS_4lessIS7_EELb1EEENS5_ISB_EEED1Ev, symObjAddr: 0x849C, symBinAddr: 0x10000C6C0, symSize: 0x2C }
  - { offsetInCU: 0x16474, offset: 0x16474, size: 0x8, addend: 0x0, symName: __ZNSt3__16__treeINS_12__value_typeINS_12basic_stringIcNS_11char_traitsIcEENS_9allocatorIcEEEENS_6vectorIdNS5_IdEEEEEENS_19__map_value_compareIS7_SB_NS_4lessIS7_EELb1EEENS5_ISB_EEED2Ev, symObjAddr: 0x84C8, symBinAddr: 0x10000C6EC, symSize: 0x38 }
  - { offsetInCU: 0x164A0, offset: 0x164A0, size: 0x8, addend: 0x0, symName: __ZNSt3__16__treeINS_12__value_typeINS_12basic_stringIcNS_11char_traitsIcEENS_9allocatorIcEEEENS_6vectorIdNS5_IdEEEEEENS_19__map_value_compareIS7_SB_NS_4lessIS7_EELb1EEENS5_ISB_EEE7destroyEPNS_11__tree_nodeISB_PvEE, symObjAddr: 0x8500, symBinAddr: 0x10000C724, symSize: 0xAC }
  - { offsetInCU: 0x164EC, offset: 0x164EC, size: 0x8, addend: 0x0, symName: __ZNKSt3__16__treeINS_12__value_typeINS_12basic_stringIcNS_11char_traitsIcEENS_9allocatorIcEEEENS_6vectorIdNS5_IdEEEEEENS_19__map_value_compareIS7_SB_NS_4lessIS7_EELb1EEENS5_ISB_EEE6__rootB8ue170006Ev, symObjAddr: 0x85AC, symBinAddr: 0x10000C7D0, symSize: 0x28 }
  - { offsetInCU: 0x16512, offset: 0x16512, size: 0x8, addend: 0x0, symName: __ZNSt3__16__treeINS_12__value_typeINS_12basic_stringIcNS_11char_traitsIcEENS_9allocatorIcEEEENS_6vectorIdNS5_IdEEEEEENS_19__map_value_compareIS7_SB_NS_4lessIS7_EELb1EEENS5_ISB_EEE12__node_allocB8ue170006Ev, symObjAddr: 0x85D4, symBinAddr: 0x10000C7F8, symSize: 0x28 }
  - { offsetInCU: 0x16538, offset: 0x16538, size: 0x8, addend: 0x0, symName: __ZNSt3__116allocator_traitsINS_9allocatorINS_11__tree_nodeINS_12__value_typeINS_12basic_stringIcNS_11char_traitsIcEENS1_IcEEEENS_6vectorIdNS1_IdEEEEEEPvEEEEE7destroyB8ue170006INS_4pairIKS8_SB_EEvvEEvRSF_PT_, symObjAddr: 0x85FC, symBinAddr: 0x10000C820, symSize: 0x28 }
  - { offsetInCU: 0x16572, offset: 0x16572, size: 0x8, addend: 0x0, symName: __ZNSt3__122__tree_key_value_typesINS_12__value_typeINS_12basic_stringIcNS_11char_traitsIcEENS_9allocatorIcEEEENS_6vectorIdNS5_IdEEEEEEE9__get_ptrB8ue170006ERSB_, symObjAddr: 0x8624, symBinAddr: 0x10000C848, symSize: 0x24 }
  - { offsetInCU: 0x16596, offset: 0x16596, size: 0x8, addend: 0x0, symName: __ZNSt3__116allocator_traitsINS_9allocatorINS_11__tree_nodeINS_12__value_typeINS_12basic_stringIcNS_11char_traitsIcEENS1_IcEEEENS_6vectorIdNS1_IdEEEEEEPvEEEEE10deallocateB8ue170006ERSF_PSE_m, symObjAddr: 0x8648, symBinAddr: 0x10000C86C, symSize: 0x34 }
  - { offsetInCU: 0x165D8, offset: 0x165D8, size: 0x8, addend: 0x0, symName: __ZNSt3__117__compressed_pairINS_15__tree_end_nodeIPNS_16__tree_node_baseIPvEEEENS_9allocatorINS_11__tree_nodeINS_12__value_typeINS_12basic_stringIcNS_11char_traitsIcEENS7_IcEEEENS_6vectorIdNS7_IdEEEEEES3_EEEEE6secondB8ue170006Ev, symObjAddr: 0x867C, symBinAddr: 0x10000C8A0, symSize: 0x24 }
  - { offsetInCU: 0x165FE, offset: 0x165FE, size: 0x8, addend: 0x0, symName: __ZNSt3__122__compressed_pair_elemINS_9allocatorINS_11__tree_nodeINS_12__value_typeINS_12basic_stringIcNS_11char_traitsIcEENS1_IcEEEENS_6vectorIdNS1_IdEEEEEEPvEEEELi1ELb1EE5__getB8ue170006Ev, symObjAddr: 0x86A0, symBinAddr: 0x10000C8C4, symSize: 0x14 }
  - { offsetInCU: 0x16624, offset: 0x16624, size: 0x8, addend: 0x0, symName: __ZNSt3__112__value_typeINS_12basic_stringIcNS_11char_traitsIcEENS_9allocatorIcEEEENS_6vectorIdNS4_IdEEEEE11__get_valueB8ue170006Ev, symObjAddr: 0x86B4, symBinAddr: 0x10000C8D8, symSize: 0x14 }
  - { offsetInCU: 0x1664A, offset: 0x1664A, size: 0x8, addend: 0x0, symName: __ZNSt3__19allocatorINS_11__tree_nodeINS_12__value_typeINS_12basic_stringIcNS_11char_traitsIcEENS0_IcEEEENS_6vectorIdNS0_IdEEEEEEPvEEE10deallocateB8ue170006EPSD_m, symObjAddr: 0x86C8, symBinAddr: 0x10000C8EC, symSize: 0x44 }
  - { offsetInCU: 0x1668C, offset: 0x1668C, size: 0x8, addend: 0x0, symName: __ZNKSt3__16__treeINS_12__value_typeINS_12basic_stringIcNS_11char_traitsIcEENS_9allocatorIcEEEENS_6vectorIdNS5_IdEEEEEENS_19__map_value_compareIS7_SB_NS_4lessIS7_EELb1EEENS5_ISB_EEE10__end_nodeB8ue170006Ev, symObjAddr: 0x8788, symBinAddr: 0x10000C9AC, symSize: 0x2C }
  - { offsetInCU: 0x166B2, offset: 0x166B2, size: 0x8, addend: 0x0, symName: __ZNKSt3__117__compressed_pairINS_15__tree_end_nodeIPNS_16__tree_node_baseIPvEEEENS_9allocatorINS_11__tree_nodeINS_12__value_typeINS_12basic_stringIcNS_11char_traitsIcEENS7_IcEEEENS_6vectorIdNS7_IdEEEEEES3_EEEEE5firstB8ue170006Ev, symObjAddr: 0x87B4, symBinAddr: 0x10000C9D8, symSize: 0x24 }
  - { offsetInCU: 0x166D8, offset: 0x166D8, size: 0x8, addend: 0x0, symName: __ZNKSt3__122__compressed_pair_elemINS_15__tree_end_nodeIPNS_16__tree_node_baseIPvEEEELi0ELb0EE5__getB8ue170006Ev, symObjAddr: 0x87D8, symBinAddr: 0x10000C9FC, symSize: 0x14 }
  - { offsetInCU: 0x166FE, offset: 0x166FE, size: 0x8, addend: 0x0, symName: __ZNSt3__112__value_typeINS_12basic_stringIcNS_11char_traitsIcEENS_9allocatorIcEEEENS_3mapIS6_NS_6vectorIdNS4_IdEEEENS_4lessIS6_EENS4_INS_4pairIKS6_SA_EEEEEEE11__get_valueB8ue170006Ev, symObjAddr: 0x87EC, symBinAddr: 0x10000CA10, symSize: 0x14 }
  - { offsetInCU: 0x16724, offset: 0x16724, size: 0x8, addend: 0x0, symName: __ZNSt3__19allocatorINS_11__tree_nodeINS_12__value_typeINS_12basic_stringIcNS_11char_traitsIcEENS0_IcEEEENS_3mapIS7_NS_6vectorIdNS0_IdEEEENS_4lessIS7_EENS0_INS_4pairIKS7_SB_EEEEEEEEPvEEE10deallocateB8ue170006EPSL_m, symObjAddr: 0x8800, symBinAddr: 0x10000CA24, symSize: 0x44 }
  - { offsetInCU: 0x16766, offset: 0x16766, size: 0x8, addend: 0x0, symName: __ZNKSt3__16__treeINS_12__value_typeINS_12basic_stringIcNS_11char_traitsIcEENS_9allocatorIcEEEENS_3mapIS7_NS_6vectorIdNS5_IdEEEENS_4lessIS7_EENS5_INS_4pairIKS7_SB_EEEEEEEENS_19__map_value_compareIS7_SJ_SD_Lb1EEENS5_ISJ_EEE10__end_nodeB8ue170006Ev, symObjAddr: 0x8844, symBinAddr: 0x10000CA68, symSize: 0x2C }
  - { offsetInCU: 0x1678C, offset: 0x1678C, size: 0x8, addend: 0x0, symName: __ZNKSt3__117__compressed_pairINS_15__tree_end_nodeIPNS_16__tree_node_baseIPvEEEENS_9allocatorINS_11__tree_nodeINS_12__value_typeINS_12basic_stringIcNS_11char_traitsIcEENS7_IcEEEENS_3mapISE_NS_6vectorIdNS7_IdEEEENS_4lessISE_EENS7_INS_4pairIKSE_SI_EEEEEEEES3_EEEEE5firstB8ue170006Ev, symObjAddr: 0x8870, symBinAddr: 0x10000CA94, symSize: 0x24 }
  - { offsetInCU: 0x167B2, offset: 0x167B2, size: 0x8, addend: 0x0, symName: __ZNSt3__112basic_stringIcNS_11char_traitsIcEENS_9allocatorIcEEEC2B8ue170006ILi0EEEPKc, symObjAddr: 0x8894, symBinAddr: 0x10000CAB8, symSize: 0x58 }
  - { offsetInCU: 0x167F7, offset: 0x167F7, size: 0x8, addend: 0x0, symName: __ZNSt3__117__compressed_pairINS_12basic_stringIcNS_11char_traitsIcEENS_9allocatorIcEEE5__repES5_EC1B8ue170006INS_18__default_init_tagESA_EEOT_OT0_, symObjAddr: 0x88EC, symBinAddr: 0x10000CB10, symSize: 0x3C }
  - { offsetInCU: 0x1684F, offset: 0x1684F, size: 0x8, addend: 0x0, symName: __ZNSt3__111char_traitsIcE6lengthB8ue170006EPKc, symObjAddr: 0x8928, symBinAddr: 0x10000CB4C, symSize: 0x34 }
  - { offsetInCU: 0x16872, offset: 0x16872, size: 0x8, addend: 0x0, symName: __ZNSt3__117__compressed_pairINS_12basic_stringIcNS_11char_traitsIcEENS_9allocatorIcEEE5__repES5_EC2B8ue170006INS_18__default_init_tagESA_EEOT_OT0_, symObjAddr: 0x895C, symBinAddr: 0x10000CB80, symSize: 0x3C }
  - { offsetInCU: 0x168CA, offset: 0x168CA, size: 0x8, addend: 0x0, symName: __ZNSt3__122__compressed_pair_elemINS_12basic_stringIcNS_11char_traitsIcEENS_9allocatorIcEEE5__repELi0ELb0EEC2B8ue170006ENS_18__default_init_tagE, symObjAddr: 0x8998, symBinAddr: 0x10000CBBC, symSize: 0x14 }
  - { offsetInCU: 0x168FE, offset: 0x168FE, size: 0x8, addend: 0x0, symName: __ZNSt3__122__compressed_pair_elemINS_9allocatorIcEELi1ELb1EEC2B8ue170006ENS_18__default_init_tagE, symObjAddr: 0x89AC, symBinAddr: 0x10000CBD0, symSize: 0x2C }
  - { offsetInCU: 0x16932, offset: 0x16932, size: 0x8, addend: 0x0, symName: __ZNSt3__19allocatorIcEC2B8ue170006Ev, symObjAddr: 0x89D8, symBinAddr: 0x10000CBFC, symSize: 0x2C }
  - { offsetInCU: 0x1695C, offset: 0x1695C, size: 0x8, addend: 0x0, symName: __ZNSt3__116__non_trivial_ifILb1ENS_9allocatorIcEEEC2B8ue170006Ev, symObjAddr: 0x8A04, symBinAddr: 0x10000CC28, symSize: 0x14 }
  - { offsetInCU: 0x1699B, offset: 0x1699B, size: 0x8, addend: 0x0, symName: __ZNSt3__16__treeINS_12__value_typeINS_12basic_stringIcNS_11char_traitsIcEENS_9allocatorIcEEEENS_3mapIS7_NS_6vectorIdNS5_IdEEEENS_4lessIS7_EENS5_INS_4pairIKS7_SB_EEEEEEEENS_19__map_value_compareIS7_SJ_SD_Lb1EEENS5_ISJ_EEE25__emplace_unique_key_argsIS7_JRKNS_21piecewise_construct_tENS_5tupleIJOS7_EEENSS_IJEEEEEENSE_INS_15__tree_iteratorISJ_PNS_11__tree_nodeISJ_PvEElEEbEERKT_DpOT0_, symObjAddr: 0x8A3C, symBinAddr: 0x10000CC60, symSize: 0x100 }
  - { offsetInCU: 0x16A71, offset: 0x16A71, size: 0x8, addend: 0x0, symName: __ZNKSt3__115__tree_iteratorINS_12__value_typeINS_12basic_stringIcNS_11char_traitsIcEENS_9allocatorIcEEEENS_3mapIS7_NS_6vectorIdNS5_IdEEEENS_4lessIS7_EENS5_INS_4pairIKS7_SB_EEEEEEEEPNS_11__tree_nodeISJ_PvEElEptB8ue170006Ev, symObjAddr: 0x8B6C, symBinAddr: 0x10000CD90, symSize: 0x2C }
  - { offsetInCU: 0x16A97, offset: 0x16A97, size: 0x8, addend: 0x0, symName: __ZNSt3__16__treeINS_12__value_typeINS_12basic_stringIcNS_11char_traitsIcEENS_9allocatorIcEEEENS_3mapIS7_NS_6vectorIdNS5_IdEEEENS_4lessIS7_EENS5_INS_4pairIKS7_SB_EEEEEEEENS_19__map_value_compareIS7_SJ_SD_Lb1EEENS5_ISJ_EEE12__find_equalIS7_EERPNS_16__tree_node_baseIPvEERPNS_15__tree_end_nodeISS_EERKT_, symObjAddr: 0x8B98, symBinAddr: 0x10000CDBC, symSize: 0x184 }
  - { offsetInCU: 0x16B04, offset: 0x16B04, size: 0x8, addend: 0x0, symName: __ZNSt3__16__treeINS_12__value_typeINS_12basic_stringIcNS_11char_traitsIcEENS_9allocatorIcEEEENS_3mapIS7_NS_6vectorIdNS5_IdEEEENS_4lessIS7_EENS5_INS_4pairIKS7_SB_EEEEEEEENS_19__map_value_compareIS7_SJ_SD_Lb1EEENS5_ISJ_EEE16__construct_nodeIJRKNS_21piecewise_construct_tENS_5tupleIJOS7_EEENSS_IJEEEEEENS_10unique_ptrINS_11__tree_nodeISJ_PvEENS_22__tree_node_destructorINS5_ISZ_EEEEEEDpOT_, symObjAddr: 0x8D1C, symBinAddr: 0x10000CF40, symSize: 0x120 }
  - { offsetInCU: 0x16B8D, offset: 0x16B8D, size: 0x8, addend: 0x0, symName: __ZNSt3__16__treeINS_12__value_typeINS_12basic_stringIcNS_11char_traitsIcEENS_9allocatorIcEEEENS_3mapIS7_NS_6vectorIdNS5_IdEEEENS_4lessIS7_EENS5_INS_4pairIKS7_SB_EEEEEEEENS_19__map_value_compareIS7_SJ_SD_Lb1EEENS5_ISJ_EEE16__insert_node_atEPNS_15__tree_end_nodeIPNS_16__tree_node_baseIPvEEEERSS_SS_, symObjAddr: 0x8E3C, symBinAddr: 0x10000D060, symSize: 0xCC }
  - { offsetInCU: 0x16BE2, offset: 0x16BE2, size: 0x8, addend: 0x0, symName: __ZNKSt3__110unique_ptrINS_11__tree_nodeINS_12__value_typeINS_12basic_stringIcNS_11char_traitsIcEENS_9allocatorIcEEEENS_3mapIS8_NS_6vectorIdNS6_IdEEEENS_4lessIS8_EENS6_INS_4pairIKS8_SC_EEEEEEEEPvEENS_22__tree_node_destructorINS6_ISM_EEEEE3getB8ue170006Ev, symObjAddr: 0x8F08, symBinAddr: 0x10000D12C, symSize: 0x28 }
  - { offsetInCU: 0x16C08, offset: 0x16C08, size: 0x8, addend: 0x0, symName: __ZNSt3__110unique_ptrINS_11__tree_nodeINS_12__value_typeINS_12basic_stringIcNS_11char_traitsIcEENS_9allocatorIcEEEENS_3mapIS8_NS_6vectorIdNS6_IdEEEENS_4lessIS8_EENS6_INS_4pairIKS8_SC_EEEEEEEEPvEENS_22__tree_node_destructorINS6_ISM_EEEEE7releaseB8ue170006Ev, symObjAddr: 0x8F30, symBinAddr: 0x10000D154, symSize: 0x44 }
  - { offsetInCU: 0x16C3D, offset: 0x16C3D, size: 0x8, addend: 0x0, symName: __ZNSt3__110unique_ptrINS_11__tree_nodeINS_12__value_typeINS_12basic_stringIcNS_11char_traitsIcEENS_9allocatorIcEEEENS_3mapIS8_NS_6vectorIdNS6_IdEEEENS_4lessIS8_EENS6_INS_4pairIKS8_SC_EEEEEEEEPvEENS_22__tree_node_destructorINS6_ISM_EEEEED1B8ue170006Ev, symObjAddr: 0x8F74, symBinAddr: 0x10000D198, symSize: 0x2C }
  - { offsetInCU: 0x16C67, offset: 0x16C67, size: 0x8, addend: 0x0, symName: __ZNSt3__115__tree_iteratorINS_12__value_typeINS_12basic_stringIcNS_11char_traitsIcEENS_9allocatorIcEEEENS_3mapIS7_NS_6vectorIdNS5_IdEEEENS_4lessIS7_EENS5_INS_4pairIKS7_SB_EEEEEEEEPNS_11__tree_nodeISJ_PvEElEC1B8ue170006ESN_, symObjAddr: 0x8FA0, symBinAddr: 0x10000D1C4, symSize: 0x34 }
  - { offsetInCU: 0x16CAB, offset: 0x16CAB, size: 0x8, addend: 0x0, symName: __ZNSt3__14pairINS_15__tree_iteratorINS_12__value_typeINS_12basic_stringIcNS_11char_traitsIcEENS_9allocatorIcEEEENS_3mapIS8_NS_6vectorIdNS6_IdEEEENS_4lessIS8_EENS6_INS0_IKS8_SC_EEEEEEEEPNS_11__tree_nodeISJ_PvEElEEbEC1B8ue170006ISO_RbLSL_0EEEOT_OT0_, symObjAddr: 0x8FD4, symBinAddr: 0x10000D1F8, symSize: 0x3C }
  - { offsetInCU: 0x16D09, offset: 0x16D09, size: 0x8, addend: 0x0, symName: __ZNKSt3__16__treeINS_12__value_typeINS_12basic_stringIcNS_11char_traitsIcEENS_9allocatorIcEEEENS_3mapIS7_NS_6vectorIdNS5_IdEEEENS_4lessIS7_EENS5_INS_4pairIKS7_SB_EEEEEEEENS_19__map_value_compareIS7_SJ_SD_Lb1EEENS5_ISJ_EEE10__root_ptrB8ue170006Ev, symObjAddr: 0x9010, symBinAddr: 0x10000D234, symSize: 0x24 }
  - { offsetInCU: 0x16D2F, offset: 0x16D2F, size: 0x8, addend: 0x0, symName: __ZNSt3__16__treeINS_12__value_typeINS_12basic_stringIcNS_11char_traitsIcEENS_9allocatorIcEEEENS_3mapIS7_NS_6vectorIdNS5_IdEEEENS_4lessIS7_EENS5_INS_4pairIKS7_SB_EEEEEEEENS_19__map_value_compareIS7_SJ_SD_Lb1EEENS5_ISJ_EEE10value_compB8ue170006Ev, symObjAddr: 0x9034, symBinAddr: 0x10000D258, symSize: 0x28 }
  - { offsetInCU: 0x16D55, offset: 0x16D55, size: 0x8, addend: 0x0, symName: __ZNKSt3__119__map_value_compareINS_12basic_stringIcNS_11char_traitsIcEENS_9allocatorIcEEEENS_12__value_typeIS6_NS_3mapIS6_NS_6vectorIdNS4_IdEEEENS_4lessIS6_EENS4_INS_4pairIKS6_SB_EEEEEEEESD_Lb1EEclB8ue170006ERSF_RKSJ_, symObjAddr: 0x905C, symBinAddr: 0x10000D280, symSize: 0x50 }
  - { offsetInCU: 0x16D99, offset: 0x16D99, size: 0x8, addend: 0x0, symName: __ZNKSt3__119__map_value_compareINS_12basic_stringIcNS_11char_traitsIcEENS_9allocatorIcEEEENS_12__value_typeIS6_NS_3mapIS6_NS_6vectorIdNS4_IdEEEENS_4lessIS6_EENS4_INS_4pairIKS6_SB_EEEEEEEESD_Lb1EEclB8ue170006ERKSJ_RSF_, symObjAddr: 0x90AC, symBinAddr: 0x10000D2D0, symSize: 0x48 }
  - { offsetInCU: 0x16DDD, offset: 0x16DDD, size: 0x8, addend: 0x0, symName: __ZNSt3__117__compressed_pairImNS_19__map_value_compareINS_12basic_stringIcNS_11char_traitsIcEENS_9allocatorIcEEEENS_12__value_typeIS7_NS_3mapIS7_NS_6vectorIdNS5_IdEEEENS_4lessIS7_EENS5_INS_4pairIKS7_SC_EEEEEEEESE_Lb1EEEE6secondB8ue170006Ev, symObjAddr: 0x90F4, symBinAddr: 0x10000D318, symSize: 0x24 }
  - { offsetInCU: 0x16E03, offset: 0x16E03, size: 0x8, addend: 0x0, symName: __ZNSt3__122__compressed_pair_elemINS_19__map_value_compareINS_12basic_stringIcNS_11char_traitsIcEENS_9allocatorIcEEEENS_12__value_typeIS7_NS_3mapIS7_NS_6vectorIdNS5_IdEEEENS_4lessIS7_EENS5_INS_4pairIKS7_SC_EEEEEEEESE_Lb1EEELi1ELb1EE5__getB8ue170006Ev, symObjAddr: 0x9118, symBinAddr: 0x10000D33C, symSize: 0x14 }
  - { offsetInCU: 0x16E29, offset: 0x16E29, size: 0x8, addend: 0x0, symName: __ZNKSt3__14lessINS_12basic_stringIcNS_11char_traitsIcEENS_9allocatorIcEEEEEclB8ue170006ERKS6_S9_, symObjAddr: 0x912C, symBinAddr: 0x10000D350, symSize: 0x34 }
  - { offsetInCU: 0x16E6D, offset: 0x16E6D, size: 0x8, addend: 0x0, symName: __ZNKSt3__112__value_typeINS_12basic_stringIcNS_11char_traitsIcEENS_9allocatorIcEEEENS_3mapIS6_NS_6vectorIdNS4_IdEEEENS_4lessIS6_EENS4_INS_4pairIKS6_SA_EEEEEEE11__get_valueB8ue170006Ev, symObjAddr: 0x9160, symBinAddr: 0x10000D384, symSize: 0x14 }
  - { offsetInCU: 0x16E93, offset: 0x16E93, size: 0x8, addend: 0x0, symName: __ZNKSt3__112basic_stringIcNS_11char_traitsIcEENS_9allocatorIcEEE7compareB8ue170006ERKS5_, symObjAddr: 0x91AC, symBinAddr: 0x10000D3D0, symSize: 0x4C }
  - { offsetInCU: 0x16ECA, offset: 0x16ECA, size: 0x8, addend: 0x0, symName: __ZNKSt3__112basic_stringIcNS_11char_traitsIcEENS_9allocatorIcEEE7compareINS_17basic_string_viewIcS2_EELi0EEEiRKT_, symObjAddr: 0x91F8, symBinAddr: 0x10000D41C, symSize: 0x12C }
  - { offsetInCU: 0x16F4D, offset: 0x16F4D, size: 0x8, addend: 0x0, symName: __ZNKSt3__112basic_stringIcNS_11char_traitsIcEENS_9allocatorIcEEEcvNS_17basic_string_viewIcS2_EEB8ue170006Ev, symObjAddr: 0x9324, symBinAddr: 0x10000D548, symSize: 0x50 }
  - { offsetInCU: 0x16F73, offset: 0x16F73, size: 0x8, addend: 0x0, symName: __ZNKSt3__112basic_stringIcNS_11char_traitsIcEENS_9allocatorIcEEE4sizeB8ue170006Ev, symObjAddr: 0x9374, symBinAddr: 0x10000D598, symSize: 0x54 }
  - { offsetInCU: 0x16F99, offset: 0x16F99, size: 0x8, addend: 0x0, symName: __ZNKSt3__117basic_string_viewIcNS_11char_traitsIcEEE4sizeB8ue170006Ev, symObjAddr: 0x93C8, symBinAddr: 0x10000D5EC, symSize: 0x18 }
  - { offsetInCU: 0x16FBF, offset: 0x16FBF, size: 0x8, addend: 0x0, symName: __ZNSt3__111char_traitsIcE7compareB8ue170006EPKcS3_m, symObjAddr: 0x93E0, symBinAddr: 0x10000D604, symSize: 0x34 }
  - { offsetInCU: 0x16FFE, offset: 0x16FFE, size: 0x8, addend: 0x0, symName: __ZNKSt3__112basic_stringIcNS_11char_traitsIcEENS_9allocatorIcEEE4dataB8ue170006Ev, symObjAddr: 0x9414, symBinAddr: 0x10000D638, symSize: 0x28 }
  - { offsetInCU: 0x17024, offset: 0x17024, size: 0x8, addend: 0x0, symName: __ZNKSt3__117basic_string_viewIcNS_11char_traitsIcEEE4dataB8ue170006Ev, symObjAddr: 0x943C, symBinAddr: 0x10000D660, symSize: 0x18 }
  - { offsetInCU: 0x1704A, offset: 0x1704A, size: 0x8, addend: 0x0, symName: __ZNKSt3__112basic_stringIcNS_11char_traitsIcEENS_9allocatorIcEEE9__is_longB8ue170006Ev, symObjAddr: 0x9480, symBinAddr: 0x10000D6A4, symSize: 0x38 }
  - { offsetInCU: 0x17070, offset: 0x17070, size: 0x8, addend: 0x0, symName: __ZNKSt3__112basic_stringIcNS_11char_traitsIcEENS_9allocatorIcEEE15__get_long_sizeB8ue170006Ev, symObjAddr: 0x94B8, symBinAddr: 0x10000D6DC, symSize: 0x28 }
  - { offsetInCU: 0x17096, offset: 0x17096, size: 0x8, addend: 0x0, symName: __ZNKSt3__112basic_stringIcNS_11char_traitsIcEENS_9allocatorIcEEE16__get_short_sizeB8ue170006Ev, symObjAddr: 0x94E0, symBinAddr: 0x10000D704, symSize: 0x34 }
  - { offsetInCU: 0x170BC, offset: 0x170BC, size: 0x8, addend: 0x0, symName: __ZNKSt3__117__compressed_pairINS_12basic_stringIcNS_11char_traitsIcEENS_9allocatorIcEEE5__repES5_E5firstB8ue170006Ev, symObjAddr: 0x9514, symBinAddr: 0x10000D738, symSize: 0x24 }
  - { offsetInCU: 0x170E2, offset: 0x170E2, size: 0x8, addend: 0x0, symName: __ZNKSt3__122__compressed_pair_elemINS_12basic_stringIcNS_11char_traitsIcEENS_9allocatorIcEEE5__repELi0ELb0EE5__getB8ue170006Ev, symObjAddr: 0x9538, symBinAddr: 0x10000D75C, symSize: 0x14 }
  - { offsetInCU: 0x17108, offset: 0x17108, size: 0x8, addend: 0x0, symName: __ZNKSt3__112basic_stringIcNS_11char_traitsIcEENS_9allocatorIcEEE13__get_pointerB8ue170006Ev, symObjAddr: 0x9560, symBinAddr: 0x10000D784, symSize: 0x54 }
  - { offsetInCU: 0x1712E, offset: 0x1712E, size: 0x8, addend: 0x0, symName: __ZNKSt3__112basic_stringIcNS_11char_traitsIcEENS_9allocatorIcEEE18__get_long_pointerB8ue170006Ev, symObjAddr: 0x95B4, symBinAddr: 0x10000D7D8, symSize: 0x28 }
  - { offsetInCU: 0x17154, offset: 0x17154, size: 0x8, addend: 0x0, symName: __ZNKSt3__112basic_stringIcNS_11char_traitsIcEENS_9allocatorIcEEE19__get_short_pointerB8ue170006Ev, symObjAddr: 0x95DC, symBinAddr: 0x10000D800, symSize: 0x28 }
  - { offsetInCU: 0x1717A, offset: 0x1717A, size: 0x8, addend: 0x0, symName: __ZNSt3__114pointer_traitsIPKcE10pointer_toB8ue170006ERS1_, symObjAddr: 0x9604, symBinAddr: 0x10000D828, symSize: 0x14 }
  - { offsetInCU: 0x171A7, offset: 0x171A7, size: 0x8, addend: 0x0, symName: __ZNKSt3__16__lessIvvEclB8ue170006ImmEEbRKT_RKT0_, symObjAddr: 0x966C, symBinAddr: 0x10000D890, symSize: 0x34 }
  - { offsetInCU: 0x171FB, offset: 0x171FB, size: 0x8, addend: 0x0, symName: __ZNSt3__117basic_string_viewIcNS_11char_traitsIcEEEC1B8ue170006EPKcm, symObjAddr: 0x96A0, symBinAddr: 0x10000D8C4, symSize: 0x3C }
  - { offsetInCU: 0x17243, offset: 0x17243, size: 0x8, addend: 0x0, symName: __ZNSt3__117basic_string_viewIcNS_11char_traitsIcEEEC2B8ue170006EPKcm, symObjAddr: 0x96DC, symBinAddr: 0x10000D900, symSize: 0x2C }
  - { offsetInCU: 0x1728B, offset: 0x1728B, size: 0x8, addend: 0x0, symName: __ZNSt3__116allocator_traitsINS_9allocatorINS_11__tree_nodeINS_12__value_typeINS_12basic_stringIcNS_11char_traitsIcEENS1_IcEEEENS_3mapIS8_NS_6vectorIdNS1_IdEEEENS_4lessIS8_EENS1_INS_4pairIKS8_SC_EEEEEEEEPvEEEEE8allocateB8ue170006ERSN_m, symObjAddr: 0x9708, symBinAddr: 0x10000D92C, symSize: 0x2C }
  - { offsetInCU: 0x172BE, offset: 0x172BE, size: 0x8, addend: 0x0, symName: __ZNSt3__122__tree_node_destructorINS_9allocatorINS_11__tree_nodeINS_12__value_typeINS_12basic_stringIcNS_11char_traitsIcEENS1_IcEEEENS_3mapIS8_NS_6vectorIdNS1_IdEEEENS_4lessIS8_EENS1_INS_4pairIKS8_SC_EEEEEEEEPvEEEEEC1B8ue170006ERSN_b, symObjAddr: 0x9734, symBinAddr: 0x10000D958, symSize: 0x48 }
  - { offsetInCU: 0x1730C, offset: 0x1730C, size: 0x8, addend: 0x0, symName: __ZNSt3__110unique_ptrINS_11__tree_nodeINS_12__value_typeINS_12basic_stringIcNS_11char_traitsIcEENS_9allocatorIcEEEENS_3mapIS8_NS_6vectorIdNS6_IdEEEENS_4lessIS8_EENS6_INS_4pairIKS8_SC_EEEEEEEEPvEENS_22__tree_node_destructorINS6_ISM_EEEEEC1B8ue170006ILb1EvEEPSM_NS_16__dependent_typeINS_27__unique_ptr_deleter_sfinaeISP_EEXT_EE20__good_rval_ref_typeE, symObjAddr: 0x977C, symBinAddr: 0x10000D9A0, symSize: 0x3C }
  - { offsetInCU: 0x1735D, offset: 0x1735D, size: 0x8, addend: 0x0, symName: __ZNSt3__116allocator_traitsINS_9allocatorINS_11__tree_nodeINS_12__value_typeINS_12basic_stringIcNS_11char_traitsIcEENS1_IcEEEENS_3mapIS8_NS_6vectorIdNS1_IdEEEENS_4lessIS8_EENS1_INS_4pairIKS8_SC_EEEEEEEEPvEEEEE9constructB8ue170006INSF_ISG_SJ_EEJRKNS_21piecewise_construct_tENS_5tupleIJOS8_EEENSU_IJEEEEvEEvRSN_PT_DpOT0_, symObjAddr: 0x97B8, symBinAddr: 0x10000D9DC, symSize: 0x44 }
  - { offsetInCU: 0x173DC, offset: 0x173DC, size: 0x8, addend: 0x0, symName: __ZNKSt3__110unique_ptrINS_11__tree_nodeINS_12__value_typeINS_12basic_stringIcNS_11char_traitsIcEENS_9allocatorIcEEEENS_3mapIS8_NS_6vectorIdNS6_IdEEEENS_4lessIS8_EENS6_INS_4pairIKS8_SC_EEEEEEEEPvEENS_22__tree_node_destructorINS6_ISM_EEEEEptB8ue170006Ev, symObjAddr: 0x97FC, symBinAddr: 0x10000DA20, symSize: 0x28 }
  - { offsetInCU: 0x17402, offset: 0x17402, size: 0x8, addend: 0x0, symName: __ZNSt3__110unique_ptrINS_11__tree_nodeINS_12__value_typeINS_12basic_stringIcNS_11char_traitsIcEENS_9allocatorIcEEEENS_3mapIS8_NS_6vectorIdNS6_IdEEEENS_4lessIS8_EENS6_INS_4pairIKS8_SC_EEEEEEEEPvEENS_22__tree_node_destructorINS6_ISM_EEEEE11get_deleterB8ue170006Ev, symObjAddr: 0x9824, symBinAddr: 0x10000DA48, symSize: 0x24 }
  - { offsetInCU: 0x17428, offset: 0x17428, size: 0x8, addend: 0x0, symName: __ZNSt3__19allocatorINS_11__tree_nodeINS_12__value_typeINS_12basic_stringIcNS_11char_traitsIcEENS0_IcEEEENS_3mapIS7_NS_6vectorIdNS0_IdEEEENS_4lessIS7_EENS0_INS_4pairIKS7_SB_EEEEEEEEPvEEE8allocateB8ue170006Em, symObjAddr: 0x9848, symBinAddr: 0x10000DA6C, symSize: 0x5C }
  - { offsetInCU: 0x17466, offset: 0x17466, size: 0x8, addend: 0x0, symName: __ZNSt3__116allocator_traitsINS_9allocatorINS_11__tree_nodeINS_12__value_typeINS_12basic_stringIcNS_11char_traitsIcEENS1_IcEEEENS_3mapIS8_NS_6vectorIdNS1_IdEEEENS_4lessIS8_EENS1_INS_4pairIKS8_SC_EEEEEEEEPvEEEEE8max_sizeB8ue170006ISN_vEEmRKSN_, symObjAddr: 0x98A4, symBinAddr: 0x10000DAC8, symSize: 0x24 }
  - { offsetInCU: 0x17494, offset: 0x17494, size: 0x8, addend: 0x0, symName: __ZNKSt3__19allocatorINS_11__tree_nodeINS_12__value_typeINS_12basic_stringIcNS_11char_traitsIcEENS0_IcEEEENS_3mapIS7_NS_6vectorIdNS0_IdEEEENS_4lessIS7_EENS0_INS_4pairIKS7_SB_EEEEEEEEPvEEE8max_sizeB8ue170006Ev, symObjAddr: 0x9924, symBinAddr: 0x10000DB48, symSize: 0x18 }
  - { offsetInCU: 0x174BA, offset: 0x174BA, size: 0x8, addend: 0x0, symName: __ZNSt3__122__tree_node_destructorINS_9allocatorINS_11__tree_nodeINS_12__value_typeINS_12basic_stringIcNS_11char_traitsIcEENS1_IcEEEENS_3mapIS8_NS_6vectorIdNS1_IdEEEENS_4lessIS8_EENS1_INS_4pairIKS8_SC_EEEEEEEEPvEEEEEC2B8ue170006ERSN_b, symObjAddr: 0x9960, symBinAddr: 0x10000DB84, symSize: 0x38 }
  - { offsetInCU: 0x17502, offset: 0x17502, size: 0x8, addend: 0x0, symName: __ZNSt3__110unique_ptrINS_11__tree_nodeINS_12__value_typeINS_12basic_stringIcNS_11char_traitsIcEENS_9allocatorIcEEEENS_3mapIS8_NS_6vectorIdNS6_IdEEEENS_4lessIS8_EENS6_INS_4pairIKS8_SC_EEEEEEEEPvEENS_22__tree_node_destructorINS6_ISM_EEEEEC2B8ue170006ILb1EvEEPSM_NS_16__dependent_typeINS_27__unique_ptr_deleter_sfinaeISP_EEXT_EE20__good_rval_ref_typeE, symObjAddr: 0x9998, symBinAddr: 0x10000DBBC, symSize: 0x48 }
  - { offsetInCU: 0x17553, offset: 0x17553, size: 0x8, addend: 0x0, symName: __ZNSt3__117__compressed_pairIPNS_11__tree_nodeINS_12__value_typeINS_12basic_stringIcNS_11char_traitsIcEENS_9allocatorIcEEEENS_3mapIS8_NS_6vectorIdNS6_IdEEEENS_4lessIS8_EENS6_INS_4pairIKS8_SC_EEEEEEEEPvEENS_22__tree_node_destructorINS6_ISM_EEEEEC1B8ue170006IRSN_SQ_EEOT_OT0_, symObjAddr: 0x99E0, symBinAddr: 0x10000DC04, symSize: 0x3C }
  - { offsetInCU: 0x175AB, offset: 0x175AB, size: 0x8, addend: 0x0, symName: __ZNSt3__117__compressed_pairIPNS_11__tree_nodeINS_12__value_typeINS_12basic_stringIcNS_11char_traitsIcEENS_9allocatorIcEEEENS_3mapIS8_NS_6vectorIdNS6_IdEEEENS_4lessIS8_EENS6_INS_4pairIKS8_SC_EEEEEEEEPvEENS_22__tree_node_destructorINS6_ISM_EEEEEC2B8ue170006IRSN_SQ_EEOT_OT0_, symObjAddr: 0x9A1C, symBinAddr: 0x10000DC40, symSize: 0x48 }
  - { offsetInCU: 0x17603, offset: 0x17603, size: 0x8, addend: 0x0, symName: __ZNSt3__122__compressed_pair_elemIPNS_11__tree_nodeINS_12__value_typeINS_12basic_stringIcNS_11char_traitsIcEENS_9allocatorIcEEEENS_3mapIS8_NS_6vectorIdNS6_IdEEEENS_4lessIS8_EENS6_INS_4pairIKS8_SC_EEEEEEEEPvEELi0ELb0EEC2B8ue170006IRSN_vEEOT_, symObjAddr: 0x9A64, symBinAddr: 0x10000DC88, symSize: 0x24 }
  - { offsetInCU: 0x17645, offset: 0x17645, size: 0x8, addend: 0x0, symName: __ZNSt3__122__compressed_pair_elemINS_22__tree_node_destructorINS_9allocatorINS_11__tree_nodeINS_12__value_typeINS_12basic_stringIcNS_11char_traitsIcEENS2_IcEEEENS_3mapIS9_NS_6vectorIdNS2_IdEEEENS_4lessIS9_EENS2_INS_4pairIKS9_SD_EEEEEEEEPvEEEEEELi1ELb0EEC2B8ue170006ISP_vEEOT_, symObjAddr: 0x9A88, symBinAddr: 0x10000DCAC, symSize: 0x24 }
  - { offsetInCU: 0x17687, offset: 0x17687, size: 0x8, addend: 0x0, symName: __ZNSt3__19allocatorINS_11__tree_nodeINS_12__value_typeINS_12basic_stringIcNS_11char_traitsIcEENS0_IcEEEENS_3mapIS7_NS_6vectorIdNS0_IdEEEENS_4lessIS7_EENS0_INS_4pairIKS7_SB_EEEEEEEEPvEEE9constructB8ue170006INSE_ISF_SI_EEJRKNS_21piecewise_construct_tENS_5tupleIJOS7_EEENSS_IJEEEEEEvPT_DpOT0_, symObjAddr: 0x9AAC, symBinAddr: 0x10000DCD0, symSize: 0x44 }
  - { offsetInCU: 0x17703, offset: 0x17703, size: 0x8, addend: 0x0, symName: __ZNSt3__14pairIKNS_12basic_stringIcNS_11char_traitsIcEENS_9allocatorIcEEEENS_3mapIS6_NS_6vectorIdNS4_IdEEEENS_4lessIS6_EENS4_INS0_IS7_SB_EEEEEEEC1B8ue170006IJOS6_EJEEENS_21piecewise_construct_tENS_5tupleIJDpT_EEENSL_IJDpT0_EEE, symObjAddr: 0x9AF0, symBinAddr: 0x10000DD14, symSize: 0x44 }
  - { offsetInCU: 0x1776A, offset: 0x1776A, size: 0x8, addend: 0x0, symName: __ZNSt3__14pairIKNS_12basic_stringIcNS_11char_traitsIcEENS_9allocatorIcEEEENS_3mapIS6_NS_6vectorIdNS4_IdEEEENS_4lessIS6_EENS4_INS0_IS7_SB_EEEEEEEC1B8ue170006IJOS6_EJEJLm0EEJEEENS_21piecewise_construct_tERNS_5tupleIJDpT_EEERNSL_IJDpT0_EEENS_15__tuple_indicesIJXspT1_EEEENSU_IJXspT2_EEEE, symObjAddr: 0x9B34, symBinAddr: 0x10000DD58, symSize: 0x3C }
  - { offsetInCU: 0x177F7, offset: 0x177F7, size: 0x8, addend: 0x0, symName: __ZNSt3__14pairIKNS_12basic_stringIcNS_11char_traitsIcEENS_9allocatorIcEEEENS_3mapIS6_NS_6vectorIdNS4_IdEEEENS_4lessIS6_EENS4_INS0_IS7_SB_EEEEEEEC2B8ue170006IJOS6_EJEJLm0EEJEEENS_21piecewise_construct_tERNS_5tupleIJDpT_EEERNSL_IJDpT0_EEENS_15__tuple_indicesIJXspT1_EEEENSU_IJXspT2_EEEE, symObjAddr: 0x9B70, symBinAddr: 0x10000DD94, symSize: 0x50 }
  - { offsetInCU: 0x17884, offset: 0x17884, size: 0x8, addend: 0x0, symName: __ZNSt3__112basic_stringIcNS_11char_traitsIcEENS_9allocatorIcEEEC1B8ue170006EOS5_, symObjAddr: 0x9BE4, symBinAddr: 0x10000DE08, symSize: 0x34 }
  - { offsetInCU: 0x178BD, offset: 0x178BD, size: 0x8, addend: 0x0, symName: __ZNSt3__13mapINS_12basic_stringIcNS_11char_traitsIcEENS_9allocatorIcEEEENS_6vectorIdNS4_IdEEEENS_4lessIS6_EENS4_INS_4pairIKS6_S9_EEEEEC1B8ue170006Ev, symObjAddr: 0x9C18, symBinAddr: 0x10000DE3C, symSize: 0x2C }
  - { offsetInCU: 0x178E7, offset: 0x178E7, size: 0x8, addend: 0x0, symName: __ZNSt3__112__tuple_leafILm0EONS_12basic_stringIcNS_11char_traitsIcEENS_9allocatorIcEEEELb0EE3getB8ue170006Ev, symObjAddr: 0x9C44, symBinAddr: 0x10000DE68, symSize: 0x18 }
  - { offsetInCU: 0x1790D, offset: 0x1790D, size: 0x8, addend: 0x0, symName: __ZNSt3__112basic_stringIcNS_11char_traitsIcEENS_9allocatorIcEEEC2B8ue170006EOS5_, symObjAddr: 0x9C5C, symBinAddr: 0x10000DE80, symSize: 0x50 }
  - { offsetInCU: 0x17946, offset: 0x17946, size: 0x8, addend: 0x0, symName: __ZNSt3__112basic_stringIcNS_11char_traitsIcEENS_9allocatorIcEEE14__default_initB8ue170006Ev, symObjAddr: 0x9CAC, symBinAddr: 0x10000DED0, symSize: 0x40 }
  - { offsetInCU: 0x1796C, offset: 0x1796C, size: 0x8, addend: 0x0, symName: __ZNSt3__117__compressed_pairINS_12basic_stringIcNS_11char_traitsIcEENS_9allocatorIcEEE5__repES5_E5firstB8ue170006Ev, symObjAddr: 0x9CEC, symBinAddr: 0x10000DF10, symSize: 0x24 }
  - { offsetInCU: 0x17992, offset: 0x17992, size: 0x8, addend: 0x0, symName: __ZNSt3__122__compressed_pair_elemINS_12basic_stringIcNS_11char_traitsIcEENS_9allocatorIcEEE5__repELi0ELb0EE5__getB8ue170006Ev, symObjAddr: 0x9D10, symBinAddr: 0x10000DF34, symSize: 0x14 }
  - { offsetInCU: 0x179B8, offset: 0x179B8, size: 0x8, addend: 0x0, symName: __ZNSt3__13mapINS_12basic_stringIcNS_11char_traitsIcEENS_9allocatorIcEEEENS_6vectorIdNS4_IdEEEENS_4lessIS6_EENS4_INS_4pairIKS6_S9_EEEEEC2B8ue170006Ev, symObjAddr: 0x9D24, symBinAddr: 0x10000DF48, symSize: 0x40 }
  - { offsetInCU: 0x179E2, offset: 0x179E2, size: 0x8, addend: 0x0, symName: __ZNSt3__119__map_value_compareINS_12basic_stringIcNS_11char_traitsIcEENS_9allocatorIcEEEENS_12__value_typeIS6_NS_6vectorIdNS4_IdEEEEEENS_4lessIS6_EELb1EEC1B8ue170006ESD_, symObjAddr: 0x9D64, symBinAddr: 0x10000DF88, symSize: 0x2C }
  - { offsetInCU: 0x17A1B, offset: 0x17A1B, size: 0x8, addend: 0x0, symName: __ZNSt3__16__treeINS_12__value_typeINS_12basic_stringIcNS_11char_traitsIcEENS_9allocatorIcEEEENS_6vectorIdNS5_IdEEEEEENS_19__map_value_compareIS7_SB_NS_4lessIS7_EELb1EEENS5_ISB_EEEC1ERKSF_, symObjAddr: 0x9D90, symBinAddr: 0x10000DFB4, symSize: 0x34 }
  - { offsetInCU: 0x17A56, offset: 0x17A56, size: 0x8, addend: 0x0, symName: __ZNSt3__119__map_value_compareINS_12basic_stringIcNS_11char_traitsIcEENS_9allocatorIcEEEENS_12__value_typeIS6_NS_6vectorIdNS4_IdEEEEEENS_4lessIS6_EELb1EEC2B8ue170006ESD_, symObjAddr: 0x9DC4, symBinAddr: 0x10000DFE8, symSize: 0x14 }
  - { offsetInCU: 0x17A8F, offset: 0x17A8F, size: 0x8, addend: 0x0, symName: __ZNSt3__16__treeINS_12__value_typeINS_12basic_stringIcNS_11char_traitsIcEENS_9allocatorIcEEEENS_6vectorIdNS5_IdEEEEEENS_19__map_value_compareIS7_SB_NS_4lessIS7_EELb1EEENS5_ISB_EEEC2ERKSF_, symObjAddr: 0x9DD8, symBinAddr: 0x10000DFFC, symSize: 0x7C }
  - { offsetInCU: 0x17ACA, offset: 0x17ACA, size: 0x8, addend: 0x0, symName: __ZNSt3__117__compressed_pairINS_15__tree_end_nodeIPNS_16__tree_node_baseIPvEEEENS_9allocatorINS_11__tree_nodeINS_12__value_typeINS_12basic_stringIcNS_11char_traitsIcEENS7_IcEEEENS_6vectorIdNS7_IdEEEEEES3_EEEEEC1B8ue170006ILb1EvEEv, symObjAddr: 0x9E54, symBinAddr: 0x10000E078, symSize: 0x2C }
  - { offsetInCU: 0x17AFF, offset: 0x17AFF, size: 0x8, addend: 0x0, symName: __ZNSt3__117__compressed_pairImNS_19__map_value_compareINS_12basic_stringIcNS_11char_traitsIcEENS_9allocatorIcEEEENS_12__value_typeIS7_NS_6vectorIdNS5_IdEEEEEENS_4lessIS7_EELb1EEEEC1B8ue170006IiRKSF_EEOT_OT0_, symObjAddr: 0x9E80, symBinAddr: 0x10000E0A4, symSize: 0x3C }
  - { offsetInCU: 0x17B57, offset: 0x17B57, size: 0x8, addend: 0x0, symName: __ZNSt3__16__treeINS_12__value_typeINS_12basic_stringIcNS_11char_traitsIcEENS_9allocatorIcEEEENS_6vectorIdNS5_IdEEEEEENS_19__map_value_compareIS7_SB_NS_4lessIS7_EELb1EEENS5_ISB_EEE10__end_nodeB8ue170006Ev, symObjAddr: 0x9EBC, symBinAddr: 0x10000E0E0, symSize: 0x2C }
  - { offsetInCU: 0x17B7D, offset: 0x17B7D, size: 0x8, addend: 0x0, symName: __ZNSt3__16__treeINS_12__value_typeINS_12basic_stringIcNS_11char_traitsIcEENS_9allocatorIcEEEENS_6vectorIdNS5_IdEEEEEENS_19__map_value_compareIS7_SB_NS_4lessIS7_EELb1EEENS5_ISB_EEE12__begin_nodeB8ue170006Ev, symObjAddr: 0x9EE8, symBinAddr: 0x10000E10C, symSize: 0x14 }
  - { offsetInCU: 0x17BA3, offset: 0x17BA3, size: 0x8, addend: 0x0, symName: __ZNSt3__117__compressed_pairINS_15__tree_end_nodeIPNS_16__tree_node_baseIPvEEEENS_9allocatorINS_11__tree_nodeINS_12__value_typeINS_12basic_stringIcNS_11char_traitsIcEENS7_IcEEEENS_6vectorIdNS7_IdEEEEEES3_EEEEEC2B8ue170006ILb1EvEEv, symObjAddr: 0x9EFC, symBinAddr: 0x10000E120, symSize: 0x34 }
  - { offsetInCU: 0x17BD8, offset: 0x17BD8, size: 0x8, addend: 0x0, symName: __ZNSt3__122__compressed_pair_elemINS_9allocatorINS_11__tree_nodeINS_12__value_typeINS_12basic_stringIcNS_11char_traitsIcEENS1_IcEEEENS_6vectorIdNS1_IdEEEEEEPvEEEELi1ELb1EEC2B8ue170006ENS_16__value_init_tagE, symObjAddr: 0x9F30, symBinAddr: 0x10000E154, symSize: 0x2C }
  - { offsetInCU: 0x17C0C, offset: 0x17C0C, size: 0x8, addend: 0x0, symName: __ZNSt3__19allocatorINS_11__tree_nodeINS_12__value_typeINS_12basic_stringIcNS_11char_traitsIcEENS0_IcEEEENS_6vectorIdNS0_IdEEEEEEPvEEEC2B8ue170006Ev, symObjAddr: 0x9F5C, symBinAddr: 0x10000E180, symSize: 0x2C }
  - { offsetInCU: 0x17C36, offset: 0x17C36, size: 0x8, addend: 0x0, symName: __ZNSt3__116__non_trivial_ifILb1ENS_9allocatorINS_11__tree_nodeINS_12__value_typeINS_12basic_stringIcNS_11char_traitsIcEENS1_IcEEEENS_6vectorIdNS1_IdEEEEEEPvEEEEEC2B8ue170006Ev, symObjAddr: 0x9F88, symBinAddr: 0x10000E1AC, symSize: 0x14 }
  - { offsetInCU: 0x17C60, offset: 0x17C60, size: 0x8, addend: 0x0, symName: __ZNSt3__117__compressed_pairImNS_19__map_value_compareINS_12basic_stringIcNS_11char_traitsIcEENS_9allocatorIcEEEENS_12__value_typeIS7_NS_6vectorIdNS5_IdEEEEEENS_4lessIS7_EELb1EEEEC2B8ue170006IiRKSF_EEOT_OT0_, symObjAddr: 0x9F9C, symBinAddr: 0x10000E1C0, symSize: 0x44 }
  - { offsetInCU: 0x17CB8, offset: 0x17CB8, size: 0x8, addend: 0x0, symName: __ZNSt3__122__compressed_pair_elemINS_19__map_value_compareINS_12basic_stringIcNS_11char_traitsIcEENS_9allocatorIcEEEENS_12__value_typeIS7_NS_6vectorIdNS5_IdEEEEEENS_4lessIS7_EELb1EEELi1ELb1EEC2B8ue170006IRKSF_vEEOT_, symObjAddr: 0x9FE0, symBinAddr: 0x10000E204, symSize: 0x18 }
  - { offsetInCU: 0x17CFA, offset: 0x17CFA, size: 0x8, addend: 0x0, symName: __ZNSt3__117__compressed_pairINS_15__tree_end_nodeIPNS_16__tree_node_baseIPvEEEENS_9allocatorINS_11__tree_nodeINS_12__value_typeINS_12basic_stringIcNS_11char_traitsIcEENS7_IcEEEENS_6vectorIdNS7_IdEEEEEES3_EEEEE5firstB8ue170006Ev, symObjAddr: 0x9FF8, symBinAddr: 0x10000E21C, symSize: 0x24 }
  - { offsetInCU: 0x17D20, offset: 0x17D20, size: 0x8, addend: 0x0, symName: __ZNKSt3__117__compressed_pairIPNS_11__tree_nodeINS_12__value_typeINS_12basic_stringIcNS_11char_traitsIcEENS_9allocatorIcEEEENS_3mapIS8_NS_6vectorIdNS6_IdEEEENS_4lessIS8_EENS6_INS_4pairIKS8_SC_EEEEEEEEPvEENS_22__tree_node_destructorINS6_ISM_EEEEE5firstB8ue170006Ev, symObjAddr: 0xA01C, symBinAddr: 0x10000E240, symSize: 0x24 }
  - { offsetInCU: 0x17D46, offset: 0x17D46, size: 0x8, addend: 0x0, symName: __ZNKSt3__122__compressed_pair_elemIPNS_11__tree_nodeINS_12__value_typeINS_12basic_stringIcNS_11char_traitsIcEENS_9allocatorIcEEEENS_3mapIS8_NS_6vectorIdNS6_IdEEEENS_4lessIS8_EENS6_INS_4pairIKS8_SC_EEEEEEEEPvEELi0ELb0EE5__getB8ue170006Ev, symObjAddr: 0xA040, symBinAddr: 0x10000E264, symSize: 0x14 }
  - { offsetInCU: 0x17D6C, offset: 0x17D6C, size: 0x8, addend: 0x0, symName: __ZNSt3__117__compressed_pairIPNS_11__tree_nodeINS_12__value_typeINS_12basic_stringIcNS_11char_traitsIcEENS_9allocatorIcEEEENS_3mapIS8_NS_6vectorIdNS6_IdEEEENS_4lessIS8_EENS6_INS_4pairIKS8_SC_EEEEEEEEPvEENS_22__tree_node_destructorINS6_ISM_EEEEE6secondB8ue170006Ev, symObjAddr: 0xA054, symBinAddr: 0x10000E278, symSize: 0x28 }
  - { offsetInCU: 0x17D92, offset: 0x17D92, size: 0x8, addend: 0x0, symName: __ZNSt3__122__compressed_pair_elemINS_22__tree_node_destructorINS_9allocatorINS_11__tree_nodeINS_12__value_typeINS_12basic_stringIcNS_11char_traitsIcEENS2_IcEEEENS_3mapIS9_NS_6vectorIdNS2_IdEEEENS_4lessIS9_EENS2_INS_4pairIKS9_SD_EEEEEEEEPvEEEEEELi1ELb0EE5__getB8ue170006Ev, symObjAddr: 0xA07C, symBinAddr: 0x10000E2A0, symSize: 0x14 }
  - { offsetInCU: 0x17DB8, offset: 0x17DB8, size: 0x8, addend: 0x0, symName: __ZNSt3__16__treeINS_12__value_typeINS_12basic_stringIcNS_11char_traitsIcEENS_9allocatorIcEEEENS_3mapIS7_NS_6vectorIdNS5_IdEEEENS_4lessIS7_EENS5_INS_4pairIKS7_SB_EEEEEEEENS_19__map_value_compareIS7_SJ_SD_Lb1EEENS5_ISJ_EEE4sizeB8ue170006Ev, symObjAddr: 0xA3BC, symBinAddr: 0x10000E5E0, symSize: 0x28 }
  - { offsetInCU: 0x17DDE, offset: 0x17DDE, size: 0x8, addend: 0x0, symName: __ZNKSt3__116__tree_node_baseIPvE15__parent_unsafeB8ue170006Ev, symObjAddr: 0xA3E4, symBinAddr: 0x10000E608, symSize: 0x18 }
  - { offsetInCU: 0x17E04, offset: 0x17E04, size: 0x8, addend: 0x0, symName: __ZNSt3__116__tree_node_baseIPvE12__set_parentB8ue170006EPS2_, symObjAddr: 0xA5CC, symBinAddr: 0x10000E7F0, symSize: 0x20 }
  - { offsetInCU: 0x17E39, offset: 0x17E39, size: 0x8, addend: 0x0, symName: __ZNSt3__117__compressed_pairImNS_19__map_value_compareINS_12basic_stringIcNS_11char_traitsIcEENS_9allocatorIcEEEENS_12__value_typeIS7_NS_3mapIS7_NS_6vectorIdNS5_IdEEEENS_4lessIS7_EENS5_INS_4pairIKS7_SC_EEEEEEEESE_Lb1EEEE5firstB8ue170006Ev, symObjAddr: 0xA5EC, symBinAddr: 0x10000E810, symSize: 0x24 }
  - { offsetInCU: 0x17E5F, offset: 0x17E5F, size: 0x8, addend: 0x0, symName: __ZNSt3__122__compressed_pair_elemImLi0ELb0EE5__getB8ue170006Ev, symObjAddr: 0xA610, symBinAddr: 0x10000E834, symSize: 0x14 }
  - { offsetInCU: 0x17E85, offset: 0x17E85, size: 0x8, addend: 0x0, symName: __ZNSt3__117__compressed_pairIPNS_11__tree_nodeINS_12__value_typeINS_12basic_stringIcNS_11char_traitsIcEENS_9allocatorIcEEEENS_3mapIS8_NS_6vectorIdNS6_IdEEEENS_4lessIS8_EENS6_INS_4pairIKS8_SC_EEEEEEEEPvEENS_22__tree_node_destructorINS6_ISM_EEEEE5firstB8ue170006Ev, symObjAddr: 0xA624, symBinAddr: 0x10000E848, symSize: 0x24 }
  - { offsetInCU: 0x17EAB, offset: 0x17EAB, size: 0x8, addend: 0x0, symName: __ZNSt3__122__compressed_pair_elemIPNS_11__tree_nodeINS_12__value_typeINS_12basic_stringIcNS_11char_traitsIcEENS_9allocatorIcEEEENS_3mapIS8_NS_6vectorIdNS6_IdEEEENS_4lessIS8_EENS6_INS_4pairIKS8_SC_EEEEEEEEPvEELi0ELb0EE5__getB8ue170006Ev, symObjAddr: 0xA648, symBinAddr: 0x10000E86C, symSize: 0x14 }
  - { offsetInCU: 0x17ED1, offset: 0x17ED1, size: 0x8, addend: 0x0, symName: __ZNSt3__110unique_ptrINS_11__tree_nodeINS_12__value_typeINS_12basic_stringIcNS_11char_traitsIcEENS_9allocatorIcEEEENS_3mapIS8_NS_6vectorIdNS6_IdEEEENS_4lessIS8_EENS6_INS_4pairIKS8_SC_EEEEEEEEPvEENS_22__tree_node_destructorINS6_ISM_EEEEED2B8ue170006Ev, symObjAddr: 0xA65C, symBinAddr: 0x10000E880, symSize: 0x30 }
  - { offsetInCU: 0x17EFB, offset: 0x17EFB, size: 0x8, addend: 0x0, symName: __ZNSt3__110unique_ptrINS_11__tree_nodeINS_12__value_typeINS_12basic_stringIcNS_11char_traitsIcEENS_9allocatorIcEEEENS_3mapIS8_NS_6vectorIdNS6_IdEEEENS_4lessIS8_EENS6_INS_4pairIKS8_SC_EEEEEEEEPvEENS_22__tree_node_destructorINS6_ISM_EEEEE5resetB8ue170006EPSM_, symObjAddr: 0xA68C, symBinAddr: 0x10000E8B0, symSize: 0x78 }
  - { offsetInCU: 0x17F3F, offset: 0x17F3F, size: 0x8, addend: 0x0, symName: __ZNSt3__122__tree_node_destructorINS_9allocatorINS_11__tree_nodeINS_12__value_typeINS_12basic_stringIcNS_11char_traitsIcEENS1_IcEEEENS_3mapIS8_NS_6vectorIdNS1_IdEEEENS_4lessIS8_EENS1_INS_4pairIKS8_SC_EEEEEEEEPvEEEEEclB8ue170006EPSM_, symObjAddr: 0xA704, symBinAddr: 0x10000E928, symSize: 0x94 }
  - { offsetInCU: 0x17F74, offset: 0x17F74, size: 0x8, addend: 0x0, symName: __ZNSt3__115__tree_iteratorINS_12__value_typeINS_12basic_stringIcNS_11char_traitsIcEENS_9allocatorIcEEEENS_3mapIS7_NS_6vectorIdNS5_IdEEEENS_4lessIS7_EENS5_INS_4pairIKS7_SB_EEEEEEEEPNS_11__tree_nodeISJ_PvEElEC2B8ue170006ESN_, symObjAddr: 0xA798, symBinAddr: 0x10000E9BC, symSize: 0x20 }
  - { offsetInCU: 0x17FAD, offset: 0x17FAD, size: 0x8, addend: 0x0, symName: __ZNSt3__14pairINS_15__tree_iteratorINS_12__value_typeINS_12basic_stringIcNS_11char_traitsIcEENS_9allocatorIcEEEENS_3mapIS8_NS_6vectorIdNS6_IdEEEENS_4lessIS8_EENS6_INS0_IKS8_SC_EEEEEEEEPNS_11__tree_nodeISJ_PvEElEEbEC2B8ue170006ISO_RbLSL_0EEEOT_OT0_, symObjAddr: 0xA7B8, symBinAddr: 0x10000E9DC, symSize: 0x38 }
  - { offsetInCU: 0x1800B, offset: 0x1800B, size: 0x8, addend: 0x0, symName: __ZNSt3__15tupleIJONS_12basic_stringIcNS_11char_traitsIcEENS_9allocatorIcEEEEEEC1B8ue170006IJS6_ELi0EEEDpOT_, symObjAddr: 0xA7F0, symBinAddr: 0x10000EA14, symSize: 0x34 }
  - { offsetInCU: 0x18055, offset: 0x18055, size: 0x8, addend: 0x0, symName: __ZNSt3__15tupleIJONS_12basic_stringIcNS_11char_traitsIcEENS_9allocatorIcEEEEEEC2B8ue170006IJS6_ELi0EEEDpOT_, symObjAddr: 0xA824, symBinAddr: 0x10000EA48, symSize: 0x34 }
  - { offsetInCU: 0x1809F, offset: 0x1809F, size: 0x8, addend: 0x0, symName: __ZNSt3__112__tuple_implINS_15__tuple_indicesIJLm0EEEEJONS_12basic_stringIcNS_11char_traitsIcEENS_9allocatorIcEEEEEEC1B8ue170006IJLm0EEJS9_EJEJEJS8_EEENS1_IJXspT_EEEENS_13__tuple_typesIJDpT0_EEENS1_IJXspT1_EEEENSD_IJDpT2_EEEDpOT3_, symObjAddr: 0xA858, symBinAddr: 0x10000EA7C, symSize: 0x34 }
  - { offsetInCU: 0x18130, offset: 0x18130, size: 0x8, addend: 0x0, symName: __ZNSt3__112__tuple_implINS_15__tuple_indicesIJLm0EEEEJONS_12basic_stringIcNS_11char_traitsIcEENS_9allocatorIcEEEEEEC2B8ue170006IJLm0EEJS9_EJEJEJS8_EEENS1_IJXspT_EEEENS_13__tuple_typesIJDpT0_EEENS1_IJXspT1_EEEENSD_IJDpT2_EEEDpOT3_, symObjAddr: 0xA88C, symBinAddr: 0x10000EAB0, symSize: 0x34 }
  - { offsetInCU: 0x181C1, offset: 0x181C1, size: 0x8, addend: 0x0, symName: __ZNSt3__112__tuple_leafILm0EONS_12basic_stringIcNS_11char_traitsIcEENS_9allocatorIcEEEELb0EEC2B8ue170006IS6_vEEOT_, symObjAddr: 0xA8C0, symBinAddr: 0x10000EAE4, symSize: 0x20 }
  - { offsetInCU: 0x18204, offset: 0x18204, size: 0x8, addend: 0x0, symName: __ZNSt3__114pointer_traitsIPNS_12__value_typeINS_12basic_stringIcNS_11char_traitsIcEENS_9allocatorIcEEEENS_3mapIS7_NS_6vectorIdNS5_IdEEEENS_4lessIS7_EENS5_INS_4pairIKS7_SB_EEEEEEEEE10pointer_toB8ue170006ERSJ_, symObjAddr: 0xA8E0, symBinAddr: 0x10000EB04, symSize: 0x14 }
  - { offsetInCU: 0x18227, offset: 0x18227, size: 0x8, addend: 0x0, symName: __ZNKSt3__115__tree_iteratorINS_12__value_typeINS_12basic_stringIcNS_11char_traitsIcEENS_9allocatorIcEEEENS_3mapIS7_NS_6vectorIdNS5_IdEEEENS_4lessIS7_EENS5_INS_4pairIKS7_SB_EEEEEEEEPNS_11__tree_nodeISJ_PvEElE8__get_npB8ue170006Ev, symObjAddr: 0xA8F4, symBinAddr: 0x10000EB18, symSize: 0x18 }
  - { offsetInCU: 0x1824D, offset: 0x1824D, size: 0x8, addend: 0x0, symName: __ZNSt3__16vectorIdNS_9allocatorIdEEED2B8ue170006Ev, symObjAddr: 0xA90C, symBinAddr: 0x10000EB30, symSize: 0x44 }
  - { offsetInCU: 0x18277, offset: 0x18277, size: 0x8, addend: 0x0, symName: __ZNSt3__16vectorIdNS_9allocatorIdEEE16__destroy_vectorC1B8ue170006ERS3_, symObjAddr: 0xA950, symBinAddr: 0x10000EB74, symSize: 0x34 }
  - { offsetInCU: 0x182B0, offset: 0x182B0, size: 0x8, addend: 0x0, symName: __ZNSt3__16vectorIdNS_9allocatorIdEEE16__destroy_vectorclB8ue170006Ev, symObjAddr: 0xA984, symBinAddr: 0x10000EBA8, symSize: 0x90 }
  - { offsetInCU: 0x182D6, offset: 0x182D6, size: 0x8, addend: 0x0, symName: __ZNSt3__16vectorIdNS_9allocatorIdEEE16__destroy_vectorC2B8ue170006ERS3_, symObjAddr: 0xAA14, symBinAddr: 0x10000EC38, symSize: 0x20 }
  - { offsetInCU: 0x1830F, offset: 0x1830F, size: 0x8, addend: 0x0, symName: __ZNSt3__16vectorIdNS_9allocatorIdEEE7__clearB8ue170006Ev, symObjAddr: 0xAA34, symBinAddr: 0x10000EC58, symSize: 0x28 }
  - { offsetInCU: 0x18335, offset: 0x18335, size: 0x8, addend: 0x0, symName: __ZNKSt3__16vectorIdNS_9allocatorIdEEE17__annotate_deleteB8ue170006Ev, symObjAddr: 0xAA5C, symBinAddr: 0x10000EC80, symSize: 0xB8 }
  - { offsetInCU: 0x1835B, offset: 0x1835B, size: 0x8, addend: 0x0, symName: __ZNSt3__116allocator_traitsINS_9allocatorIdEEE10deallocateB8ue170006ERS2_Pdm, symObjAddr: 0xAB14, symBinAddr: 0x10000ED38, symSize: 0x34 }
  - { offsetInCU: 0x1839D, offset: 0x1839D, size: 0x8, addend: 0x0, symName: __ZNSt3__16vectorIdNS_9allocatorIdEEE7__allocB8ue170006Ev, symObjAddr: 0xAB48, symBinAddr: 0x10000ED6C, symSize: 0x28 }
  - { offsetInCU: 0x183C3, offset: 0x183C3, size: 0x8, addend: 0x0, symName: __ZNKSt3__16vectorIdNS_9allocatorIdEEE8capacityB8ue170006Ev, symObjAddr: 0xAB70, symBinAddr: 0x10000ED94, symSize: 0x40 }
  - { offsetInCU: 0x183E9, offset: 0x183E9, size: 0x8, addend: 0x0, symName: __ZNSt3__16vectorIdNS_9allocatorIdEEE22__base_destruct_at_endB8ue170006EPd, symObjAddr: 0xABB0, symBinAddr: 0x10000EDD4, symSize: 0x8C }
  - { offsetInCU: 0x1842D, offset: 0x1842D, size: 0x8, addend: 0x0, symName: __ZNSt3__116allocator_traitsINS_9allocatorIdEEE7destroyB8ue170006IdvEEvRS2_PT_, symObjAddr: 0xAC3C, symBinAddr: 0x10000EE60, symSize: 0x2C }
  - { offsetInCU: 0x1846A, offset: 0x1846A, size: 0x8, addend: 0x0, symName: __ZNSt3__19allocatorIdE7destroyB8ue170006EPd, symObjAddr: 0xAC7C, symBinAddr: 0x10000EEA0, symSize: 0x14 }
  - { offsetInCU: 0x1849E, offset: 0x1849E, size: 0x8, addend: 0x0, symName: __ZNKSt3__16vectorIdNS_9allocatorIdEEE31__annotate_contiguous_containerB8ue170006EPKvS5_S5_S5_, symObjAddr: 0xAC90, symBinAddr: 0x10000EEB4, symSize: 0x20 }
  - { offsetInCU: 0x184F0, offset: 0x184F0, size: 0x8, addend: 0x0, symName: __ZNKSt3__16vectorIdNS_9allocatorIdEEE4dataB8ue170006Ev, symObjAddr: 0xACB0, symBinAddr: 0x10000EED4, symSize: 0x28 }
  - { offsetInCU: 0x18516, offset: 0x18516, size: 0x8, addend: 0x0, symName: __ZNSt3__19allocatorIdE10deallocateB8ue170006EPdm, symObjAddr: 0xACD8, symBinAddr: 0x10000EEFC, symSize: 0x40 }
  - { offsetInCU: 0x18558, offset: 0x18558, size: 0x8, addend: 0x0, symName: __ZNSt3__117__compressed_pairIPdNS_9allocatorIdEEE6secondB8ue170006Ev, symObjAddr: 0xAD18, symBinAddr: 0x10000EF3C, symSize: 0x24 }
  - { offsetInCU: 0x1857E, offset: 0x1857E, size: 0x8, addend: 0x0, symName: __ZNSt3__122__compressed_pair_elemINS_9allocatorIdEELi1ELb1EE5__getB8ue170006Ev, symObjAddr: 0xAD3C, symBinAddr: 0x10000EF60, symSize: 0x14 }
  - { offsetInCU: 0x185A4, offset: 0x185A4, size: 0x8, addend: 0x0, symName: __ZNKSt3__16vectorIdNS_9allocatorIdEEE9__end_capB8ue170006Ev, symObjAddr: 0xAD50, symBinAddr: 0x10000EF74, symSize: 0x28 }
  - { offsetInCU: 0x185CA, offset: 0x185CA, size: 0x8, addend: 0x0, symName: __ZNKSt3__117__compressed_pairIPdNS_9allocatorIdEEE5firstB8ue170006Ev, symObjAddr: 0xAD78, symBinAddr: 0x10000EF9C, symSize: 0x24 }
  - { offsetInCU: 0x185F0, offset: 0x185F0, size: 0x8, addend: 0x0, symName: __ZNKSt3__122__compressed_pair_elemIPdLi0ELb0EE5__getB8ue170006Ev, symObjAddr: 0xAD9C, symBinAddr: 0x10000EFC0, symSize: 0x14 }
  - { offsetInCU: 0x18616, offset: 0x18616, size: 0x8, addend: 0x0, symName: __ZNSt3__16vectorIdNS_9allocatorIdEEEC2B8ue170006ESt16initializer_listIdE, symObjAddr: 0xADB0, symBinAddr: 0x10000EFD4, symSize: 0x120 }
  - { offsetInCU: 0x1866C, offset: 0x1866C, size: 0x8, addend: 0x0, symName: __ZNSt3__117__compressed_pairIPdNS_9allocatorIdEEEC1B8ue170006IDnNS_18__default_init_tagEEEOT_OT0_, symObjAddr: 0xAED0, symBinAddr: 0x10000F0F4, symSize: 0x3C }
  - { offsetInCU: 0x186C4, offset: 0x186C4, size: 0x8, addend: 0x0, symName: __ZNKSt16initializer_listIdE4sizeB8ue170006Ev, symObjAddr: 0xAF4C, symBinAddr: 0x10000F170, symSize: 0x18 }
  - { offsetInCU: 0x186EA, offset: 0x186EA, size: 0x8, addend: 0x0, symName: __ZNSt3__16vectorIdNS_9allocatorIdEEE11__vallocateB8ue170006Em, symObjAddr: 0xAF64, symBinAddr: 0x10000F188, symSize: 0xAC }
  - { offsetInCU: 0x1872E, offset: 0x1872E, size: 0x8, addend: 0x0, symName: __ZNSt3__16vectorIdNS_9allocatorIdEEE18__construct_at_endIPKdS6_EEvT_T0_m, symObjAddr: 0xB010, symBinAddr: 0x10000F234, symSize: 0x8C }
  - { offsetInCU: 0x187A4, offset: 0x187A4, size: 0x8, addend: 0x0, symName: __ZNKSt16initializer_listIdE5beginB8ue170006Ev, symObjAddr: 0xB09C, symBinAddr: 0x10000F2C0, symSize: 0x18 }
  - { offsetInCU: 0x187CA, offset: 0x187CA, size: 0x8, addend: 0x0, symName: __ZNKSt16initializer_listIdE3endB8ue170006Ev, symObjAddr: 0xB0B4, symBinAddr: 0x10000F2D8, symSize: 0x20 }
  - { offsetInCU: 0x187F0, offset: 0x187F0, size: 0x8, addend: 0x0, symName: __ZNSt3__128__exception_guard_exceptionsINS_6vectorIdNS_9allocatorIdEEE16__destroy_vectorEE10__completeB8ue170006Ev, symObjAddr: 0xB0D4, symBinAddr: 0x10000F2F8, symSize: 0x1C }
  - { offsetInCU: 0x18816, offset: 0x18816, size: 0x8, addend: 0x0, symName: __ZNSt3__128__exception_guard_exceptionsINS_6vectorIdNS_9allocatorIdEEE16__destroy_vectorEED1B8ue170006Ev, symObjAddr: 0xB0F0, symBinAddr: 0x10000F314, symSize: 0x2C }
  - { offsetInCU: 0x18840, offset: 0x18840, size: 0x8, addend: 0x0, symName: __ZNSt3__117__compressed_pairIPdNS_9allocatorIdEEEC2B8ue170006IDnNS_18__default_init_tagEEEOT_OT0_, symObjAddr: 0xB11C, symBinAddr: 0x10000F340, symSize: 0x40 }
  - { offsetInCU: 0x18898, offset: 0x18898, size: 0x8, addend: 0x0, symName: __ZNSt3__122__compressed_pair_elemIPdLi0ELb0EEC2B8ue170006IDnvEEOT_, symObjAddr: 0xB15C, symBinAddr: 0x10000F380, symSize: 0x1C }
  - { offsetInCU: 0x188DA, offset: 0x188DA, size: 0x8, addend: 0x0, symName: __ZNSt3__122__compressed_pair_elemINS_9allocatorIdEELi1ELb1EEC2B8ue170006ENS_18__default_init_tagE, symObjAddr: 0xB178, symBinAddr: 0x10000F39C, symSize: 0x2C }
  - { offsetInCU: 0x1890E, offset: 0x1890E, size: 0x8, addend: 0x0, symName: __ZNSt3__19allocatorIdEC2B8ue170006Ev, symObjAddr: 0xB1A4, symBinAddr: 0x10000F3C8, symSize: 0x2C }
  - { offsetInCU: 0x18938, offset: 0x18938, size: 0x8, addend: 0x0, symName: __ZNSt3__116__non_trivial_ifILb1ENS_9allocatorIdEEEC2B8ue170006Ev, symObjAddr: 0xB1D0, symBinAddr: 0x10000F3F4, symSize: 0x14 }
  - { offsetInCU: 0x18962, offset: 0x18962, size: 0x8, addend: 0x0, symName: __ZNSt3__128__exception_guard_exceptionsINS_6vectorIdNS_9allocatorIdEEE16__destroy_vectorEEC1B8ue170006ES5_, symObjAddr: 0xB1E4, symBinAddr: 0x10000F408, symSize: 0x34 }
  - { offsetInCU: 0x1899A, offset: 0x1899A, size: 0x8, addend: 0x0, symName: __ZNSt3__128__exception_guard_exceptionsINS_6vectorIdNS_9allocatorIdEEE16__destroy_vectorEEC2B8ue170006ES5_, symObjAddr: 0xB218, symBinAddr: 0x10000F43C, symSize: 0x24 }
  - { offsetInCU: 0x189D2, offset: 0x189D2, size: 0x8, addend: 0x0, symName: __ZNKSt3__16vectorIdNS_9allocatorIdEEE8max_sizeEv, symObjAddr: 0xB23C, symBinAddr: 0x10000F460, symSize: 0x60 }
  - { offsetInCU: 0x189FA, offset: 0x189FA, size: 0x8, addend: 0x0, symName: __ZNKSt3__16vectorIdNS_9allocatorIdEEE20__throw_length_errorB8ue170006Ev, symObjAddr: 0xB29C, symBinAddr: 0x10000F4C0, symSize: 0x1C }
  - { offsetInCU: 0x18A20, offset: 0x18A20, size: 0x8, addend: 0x0, symName: __ZNSt3__16vectorIdNS_9allocatorIdEEE9__end_capB8ue170006Ev, symObjAddr: 0xB2F8, symBinAddr: 0x10000F51C, symSize: 0x28 }
  - { offsetInCU: 0x18A46, offset: 0x18A46, size: 0x8, addend: 0x0, symName: __ZNKSt3__16vectorIdNS_9allocatorIdEEE14__annotate_newB8ue170006Em, symObjAddr: 0xB320, symBinAddr: 0x10000F544, symSize: 0xAC }
  - { offsetInCU: 0x18A85, offset: 0x18A85, size: 0x8, addend: 0x0, symName: __ZNSt3__116allocator_traitsINS_9allocatorIdEEE8max_sizeB8ue170006IS2_vEEmRKS2_, symObjAddr: 0xB3CC, symBinAddr: 0x10000F5F0, symSize: 0x24 }
  - { offsetInCU: 0x18AB3, offset: 0x18AB3, size: 0x8, addend: 0x0, symName: __ZNKSt3__16vectorIdNS_9allocatorIdEEE7__allocB8ue170006Ev, symObjAddr: 0xB3F0, symBinAddr: 0x10000F614, symSize: 0x28 }
  - { offsetInCU: 0x18AD9, offset: 0x18AD9, size: 0x8, addend: 0x0, symName: __ZNSt3__114numeric_limitsIlE3maxB8ue170006Ev, symObjAddr: 0xB418, symBinAddr: 0x10000F63C, symSize: 0x14 }
  - { offsetInCU: 0x18AED, offset: 0x18AED, size: 0x8, addend: 0x0, symName: __ZNKSt3__19allocatorIdE8max_sizeB8ue170006Ev, symObjAddr: 0xB42C, symBinAddr: 0x10000F650, symSize: 0x14 }
  - { offsetInCU: 0x18B13, offset: 0x18B13, size: 0x8, addend: 0x0, symName: __ZNKSt3__117__compressed_pairIPdNS_9allocatorIdEEE6secondB8ue170006Ev, symObjAddr: 0xB440, symBinAddr: 0x10000F664, symSize: 0x24 }
  - { offsetInCU: 0x18B39, offset: 0x18B39, size: 0x8, addend: 0x0, symName: __ZNKSt3__122__compressed_pair_elemINS_9allocatorIdEELi1ELb1EE5__getB8ue170006Ev, symObjAddr: 0xB464, symBinAddr: 0x10000F688, symSize: 0x14 }
  - { offsetInCU: 0x18B5F, offset: 0x18B5F, size: 0x8, addend: 0x0, symName: __ZNSt3__123__libcpp_numeric_limitsIlLb1EE3maxB8ue170006Ev, symObjAddr: 0xB478, symBinAddr: 0x10000F69C, symSize: 0x8 }
  - { offsetInCU: 0x18B73, offset: 0x18B73, size: 0x8, addend: 0x0, symName: __ZNSt12length_errorC1B8ue170006EPKc, symObjAddr: 0xB4E4, symBinAddr: 0x10000F708, symSize: 0x34 }
  - { offsetInCU: 0x18BAB, offset: 0x18BAB, size: 0x8, addend: 0x0, symName: __ZNSt12length_errorC2B8ue170006EPKc, symObjAddr: 0xB518, symBinAddr: 0x10000F73C, symSize: 0x4C }
  - { offsetInCU: 0x18BE3, offset: 0x18BE3, size: 0x8, addend: 0x0, symName: __ZNSt3__19allocatorIdE8allocateB8ue170006Em, symObjAddr: 0xB564, symBinAddr: 0x10000F788, symSize: 0x58 }
  - { offsetInCU: 0x18C17, offset: 0x18C17, size: 0x8, addend: 0x0, symName: __ZNSt3__117__compressed_pairIPdNS_9allocatorIdEEE5firstB8ue170006Ev, symObjAddr: 0xB5BC, symBinAddr: 0x10000F7E0, symSize: 0x24 }
  - { offsetInCU: 0x18C3D, offset: 0x18C3D, size: 0x8, addend: 0x0, symName: __ZNSt3__122__compressed_pair_elemIPdLi0ELb0EE5__getB8ue170006Ev, symObjAddr: 0xB5E0, symBinAddr: 0x10000F804, symSize: 0x14 }
  - { offsetInCU: 0x18C7C, offset: 0x18C7C, size: 0x8, addend: 0x0, symName: __ZNSt3__16vectorIdNS_9allocatorIdEEE21_ConstructTransactionC1B8ue170006ERS3_m, symObjAddr: 0xB5F4, symBinAddr: 0x10000F818, symSize: 0x3C }
  - { offsetInCU: 0x18CC4, offset: 0x18CC4, size: 0x8, addend: 0x0, symName: __ZNSt3__16vectorIdNS_9allocatorIdEEE21_ConstructTransactionD1B8ue170006Ev, symObjAddr: 0xB6B0, symBinAddr: 0x10000F8D4, symSize: 0x2C }
  - { offsetInCU: 0x18CEE, offset: 0x18CEE, size: 0x8, addend: 0x0, symName: __ZNSt3__16vectorIdNS_9allocatorIdEEE21_ConstructTransactionC2B8ue170006ERS3_m, symObjAddr: 0xB6DC, symBinAddr: 0x10000F900, symSize: 0x44 }
  - { offsetInCU: 0x18D56, offset: 0x18D56, size: 0x8, addend: 0x0, symName: __ZNSt3__14pairIPKdS2_EC1B8ue170006IS2_S2_LPv0EEEOT_OT0_, symObjAddr: 0xB874, symBinAddr: 0x10000FA98, symSize: 0x3C }
  - { offsetInCU: 0x18DB4, offset: 0x18DB4, size: 0x8, addend: 0x0, symName: __ZNSt3__14pairIPKdS2_EC2B8ue170006IS2_S2_LPv0EEEOT_OT0_, symObjAddr: 0xB8B0, symBinAddr: 0x10000FAD4, symSize: 0x34 }
  - { offsetInCU: 0x18E12, offset: 0x18E12, size: 0x8, addend: 0x0, symName: __ZNSt3__118__unwrap_iter_implIPKdLb1EE8__unwrapB8ue170006ES2_, symObjAddr: 0xB8E4, symBinAddr: 0x10000FB08, symSize: 0x24 }
  - { offsetInCU: 0x18E59, offset: 0x18E59, size: 0x8, addend: 0x0, symName: __ZNKSt3__114__copy_trivialclB8ue170006IKddLi0EEENS_4pairIPT_PT0_EES5_S5_S7_, symObjAddr: 0xBA98, symBinAddr: 0x10000FCBC, symSize: 0x48 }
  - { offsetInCU: 0x18ECC, offset: 0x18ECC, size: 0x8, addend: 0x0, symName: __ZNSt3__14pairIPKdPdEC1B8ue170006IRS2_S3_LPv0EEEOT_OT0_, symObjAddr: 0xBC60, symBinAddr: 0x10000FE84, symSize: 0x3C }
  - { offsetInCU: 0x18F2A, offset: 0x18F2A, size: 0x8, addend: 0x0, symName: __ZNSt3__14pairIPKdPdEC2B8ue170006IRS2_S3_LPv0EEEOT_OT0_, symObjAddr: 0xBC9C, symBinAddr: 0x10000FEC0, symSize: 0x34 }
  - { offsetInCU: 0x18F88, offset: 0x18F88, size: 0x8, addend: 0x0, symName: __ZNSt3__14pairIPKdPdEC1B8ue170006IS2_S3_LPv0EEEOT_OT0_, symObjAddr: 0xBCD0, symBinAddr: 0x10000FEF4, symSize: 0x3C }
  - { offsetInCU: 0x18FE6, offset: 0x18FE6, size: 0x8, addend: 0x0, symName: __ZNSt3__14pairIPKdPdEC2B8ue170006IS2_S3_LPv0EEEOT_OT0_, symObjAddr: 0xBD0C, symBinAddr: 0x10000FF30, symSize: 0x34 }
  - { offsetInCU: 0x19044, offset: 0x19044, size: 0x8, addend: 0x0, symName: __ZNSt3__118__unwrap_iter_implIPKdLb1EE8__rewrapB8ue170006ES2_S2_, symObjAddr: 0xBD7C, symBinAddr: 0x10000FFA0, symSize: 0x50 }
  - { offsetInCU: 0x19075, offset: 0x19075, size: 0x8, addend: 0x0, symName: __ZNSt3__118__unwrap_iter_implIPdLb1EE8__unwrapB8ue170006ES1_, symObjAddr: 0xBDCC, symBinAddr: 0x10000FFF0, symSize: 0x24 }
  - { offsetInCU: 0x19098, offset: 0x19098, size: 0x8, addend: 0x0, symName: __ZNSt3__118__unwrap_iter_implIPdLb1EE8__rewrapB8ue170006ES1_S1_, symObjAddr: 0xBDF0, symBinAddr: 0x100010014, symSize: 0x50 }
  - { offsetInCU: 0x190C9, offset: 0x190C9, size: 0x8, addend: 0x0, symName: __ZNSt3__16vectorIdNS_9allocatorIdEEE21_ConstructTransactionD2B8ue170006Ev, symObjAddr: 0xBE40, symBinAddr: 0x100010064, symSize: 0x20 }
  - { offsetInCU: 0x190F3, offset: 0x190F3, size: 0x8, addend: 0x0, symName: __ZNSt3__128__exception_guard_exceptionsINS_6vectorIdNS_9allocatorIdEEE16__destroy_vectorEED2B8ue170006Ev, symObjAddr: 0xBE60, symBinAddr: 0x100010084, symSize: 0x48 }
  - { offsetInCU: 0x1911D, offset: 0x1911D, size: 0x8, addend: 0x0, symName: __ZNSt3__14pairIKNS_12basic_stringIcNS_11char_traitsIcEENS_9allocatorIcEEEENS_6vectorIdNS4_IdEEEEEC2B8ue170006ILb1ELPv0EEERS7_RKSA_, symObjAddr: 0xBEA8, symBinAddr: 0x1000100CC, symSize: 0x70 }
  - { offsetInCU: 0x19173, offset: 0x19173, size: 0x8, addend: 0x0, symName: __ZNSt3__16vectorIdNS_9allocatorIdEEEC1ERKS3_, symObjAddr: 0xBF18, symBinAddr: 0x10001013C, symSize: 0x34 }
  - { offsetInCU: 0x191AE, offset: 0x191AE, size: 0x8, addend: 0x0, symName: __ZNSt3__16vectorIdNS_9allocatorIdEEEC2ERKS3_, symObjAddr: 0xBF4C, symBinAddr: 0x100010170, symSize: 0x94 }
  - { offsetInCU: 0x191E9, offset: 0x191E9, size: 0x8, addend: 0x0, symName: __ZNSt3__116allocator_traitsINS_9allocatorIdEEE37select_on_container_copy_constructionB8ue170006IS2_vvEES2_RKS2_, symObjAddr: 0xBFE0, symBinAddr: 0x100010204, symSize: 0x10 }
  - { offsetInCU: 0x1921E, offset: 0x1921E, size: 0x8, addend: 0x0, symName: __ZNSt3__117__compressed_pairIPdNS_9allocatorIdEEEC1B8ue170006IDnS3_EEOT_OT0_, symObjAddr: 0xBFF0, symBinAddr: 0x100010214, symSize: 0x3C }
  - { offsetInCU: 0x19276, offset: 0x19276, size: 0x8, addend: 0x0, symName: __ZNSt3__16vectorIdNS_9allocatorIdEEE16__init_with_sizeB8ue170006IPdS5_EEvT_T0_m, symObjAddr: 0xC02C, symBinAddr: 0x100010250, symSize: 0xB8 }
  - { offsetInCU: 0x192EA, offset: 0x192EA, size: 0x8, addend: 0x0, symName: __ZNSt3__117__compressed_pairIPdNS_9allocatorIdEEEC2B8ue170006IDnS3_EEOT_OT0_, symObjAddr: 0xC0E4, symBinAddr: 0x100010308, symSize: 0x44 }
  - { offsetInCU: 0x19342, offset: 0x19342, size: 0x8, addend: 0x0, symName: __ZNSt3__122__compressed_pair_elemINS_9allocatorIdEELi1ELb1EEC2B8ue170006IS2_vEEOT_, symObjAddr: 0xC128, symBinAddr: 0x10001034C, symSize: 0x18 }
  - { offsetInCU: 0x19384, offset: 0x19384, size: 0x8, addend: 0x0, symName: __ZNSt3__16vectorIdNS_9allocatorIdEEE18__construct_at_endIPdS5_EEvT_T0_m, symObjAddr: 0xC140, symBinAddr: 0x100010364, symSize: 0x8C }
  - { offsetInCU: 0x19414, offset: 0x19414, size: 0x8, addend: 0x0, symName: __ZNSt3__14pairIPdS1_EC1B8ue170006IS1_S1_LPv0EEEOT_OT0_, symObjAddr: 0xC31C, symBinAddr: 0x100010540, symSize: 0x3C }
  - { offsetInCU: 0x19472, offset: 0x19472, size: 0x8, addend: 0x0, symName: __ZNSt3__14pairIPdS1_EC2B8ue170006IS1_S1_LPv0EEEOT_OT0_, symObjAddr: 0xC358, symBinAddr: 0x10001057C, symSize: 0x34 }
  - { offsetInCU: 0x194D0, offset: 0x194D0, size: 0x8, addend: 0x0, symName: __ZNKSt3__114__copy_trivialclB8ue170006IddLi0EEENS_4pairIPT_PT0_EES4_S4_S6_, symObjAddr: 0xC508, symBinAddr: 0x10001072C, symSize: 0x48 }
  - { offsetInCU: 0x19538, offset: 0x19538, size: 0x8, addend: 0x0, symName: __ZNSt3__14pairIPdS1_EC1B8ue170006IRS1_S1_LPv0EEEOT_OT0_, symObjAddr: 0xC698, symBinAddr: 0x1000108BC, symSize: 0x3C }
  - { offsetInCU: 0x19596, offset: 0x19596, size: 0x8, addend: 0x0, symName: __ZNSt3__14pairIPdS1_EC2B8ue170006IRS1_S1_LPv0EEEOT_OT0_, symObjAddr: 0xC6D4, symBinAddr: 0x1000108F8, symSize: 0x34 }
  - { offsetInCU: 0x195F4, offset: 0x195F4, size: 0x8, addend: 0x0, symName: __ZNSt3__16__treeINS_12__value_typeINS_12basic_stringIcNS_11char_traitsIcEENS_9allocatorIcEEEENS_6vectorIdNS5_IdEEEEEENS_19__map_value_compareIS7_SB_NS_4lessIS7_EELb1EEENS5_ISB_EEE15__assign_uniqueIPKNS_4pairIKS7_SA_EEEEvT_SO_, symObjAddr: 0xC708, symBinAddr: 0x10001092C, symSize: 0x170 }
  - { offsetInCU: 0x19658, offset: 0x19658, size: 0x8, addend: 0x0, symName: __ZNKSt16initializer_listINSt3__14pairIKNS0_12basic_stringIcNS0_11char_traitsIcEENS0_9allocatorIcEEEENS0_6vectorIdNS5_IdEEEEEEE5beginB8ue170006Ev, symObjAddr: 0xC878, symBinAddr: 0x100010A9C, symSize: 0x18 }
  - { offsetInCU: 0x1967E, offset: 0x1967E, size: 0x8, addend: 0x0, symName: __ZNKSt16initializer_listINSt3__14pairIKNS0_12basic_stringIcNS0_11char_traitsIcEENS0_9allocatorIcEEEENS0_6vectorIdNS5_IdEEEEEEE3endB8ue170006Ev, symObjAddr: 0xC890, symBinAddr: 0x100010AB4, symSize: 0x28 }
  - { offsetInCU: 0x196A4, offset: 0x196A4, size: 0x8, addend: 0x0, symName: __ZNSt3__16__treeINS_12__value_typeINS_12basic_stringIcNS_11char_traitsIcEENS_9allocatorIcEEEENS_6vectorIdNS5_IdEEEEEENS_19__map_value_compareIS7_SB_NS_4lessIS7_EELb1EEENS5_ISB_EEE4sizeB8ue170006Ev, symObjAddr: 0xC8B8, symBinAddr: 0x100010ADC, symSize: 0x28 }
  - { offsetInCU: 0x196E8, offset: 0x196E8, size: 0x8, addend: 0x0, symName: __ZNSt3__16__treeINS_12__value_typeINS_12basic_stringIcNS_11char_traitsIcEENS_9allocatorIcEEEENS_6vectorIdNS5_IdEEEEEENS_19__map_value_compareIS7_SB_NS_4lessIS7_EELb1EEENS5_ISB_EEE18_DetachedTreeCacheC1B8ue170006EPSH_, symObjAddr: 0xC8E0, symBinAddr: 0x100010B04, symSize: 0x34 }
  - { offsetInCU: 0x19721, offset: 0x19721, size: 0x8, addend: 0x0, symName: __ZNKSt3__16__treeINS_12__value_typeINS_12basic_stringIcNS_11char_traitsIcEENS_9allocatorIcEEEENS_6vectorIdNS5_IdEEEEEENS_19__map_value_compareIS7_SB_NS_4lessIS7_EELb1EEENS5_ISB_EEE18_DetachedTreeCache5__getB8ue170006Ev, symObjAddr: 0xC914, symBinAddr: 0x100010B38, symSize: 0x18 }
  - { offsetInCU: 0x19747, offset: 0x19747, size: 0x8, addend: 0x0, symName: __ZNSt3__16__treeINS_12__value_typeINS_12basic_stringIcNS_11char_traitsIcEENS_9allocatorIcEEEENS_6vectorIdNS5_IdEEEEEENS_19__map_value_compareIS7_SB_NS_4lessIS7_EELb1EEENS5_ISB_EEE20__node_assign_uniqueERKNS_4pairIKS7_SA_EEPNS_11__tree_nodeISB_PvEE, symObjAddr: 0xC92C, symBinAddr: 0x100010B50, symSize: 0xD0 }
  - { offsetInCU: 0x197C9, offset: 0x197C9, size: 0x8, addend: 0x0, symName: __ZNSt3__16__treeINS_12__value_typeINS_12basic_stringIcNS_11char_traitsIcEENS_9allocatorIcEEEENS_6vectorIdNS5_IdEEEEEENS_19__map_value_compareIS7_SB_NS_4lessIS7_EELb1EEENS5_ISB_EEE18_DetachedTreeCache9__advanceB8ue170006Ev, symObjAddr: 0xC9FC, symBinAddr: 0x100010C20, symSize: 0x58 }
  - { offsetInCU: 0x197EF, offset: 0x197EF, size: 0x8, addend: 0x0, symName: __ZNSt3__16__treeINS_12__value_typeINS_12basic_stringIcNS_11char_traitsIcEENS_9allocatorIcEEEENS_6vectorIdNS5_IdEEEEEENS_19__map_value_compareIS7_SB_NS_4lessIS7_EELb1EEENS5_ISB_EEE18_DetachedTreeCacheD1B8ue170006Ev, symObjAddr: 0xCA54, symBinAddr: 0x100010C78, symSize: 0x2C }
  - { offsetInCU: 0x19819, offset: 0x19819, size: 0x8, addend: 0x0, symName: __ZNSt3__16__treeINS_12__value_typeINS_12basic_stringIcNS_11char_traitsIcEENS_9allocatorIcEEEENS_6vectorIdNS5_IdEEEEEENS_19__map_value_compareIS7_SB_NS_4lessIS7_EELb1EEENS5_ISB_EEE15__insert_uniqueB8ue170006ERKNS_4pairIKS7_SA_EE, symObjAddr: 0xCA80, symBinAddr: 0x100010CA4, symSize: 0x50 }
  - { offsetInCU: 0x1984E, offset: 0x1984E, size: 0x8, addend: 0x0, symName: __ZNSt3__117__compressed_pairImNS_19__map_value_compareINS_12basic_stringIcNS_11char_traitsIcEENS_9allocatorIcEEEENS_12__value_typeIS7_NS_6vectorIdNS5_IdEEEEEENS_4lessIS7_EELb1EEEE5firstB8ue170006Ev, symObjAddr: 0xCAD0, symBinAddr: 0x100010CF4, symSize: 0x24 }
  - { offsetInCU: 0x19874, offset: 0x19874, size: 0x8, addend: 0x0, symName: __ZNSt3__16__treeINS_12__value_typeINS_12basic_stringIcNS_11char_traitsIcEENS_9allocatorIcEEEENS_6vectorIdNS5_IdEEEEEENS_19__map_value_compareIS7_SB_NS_4lessIS7_EELb1EEENS5_ISB_EEE18_DetachedTreeCacheC2B8ue170006EPSH_, symObjAddr: 0xCAF4, symBinAddr: 0x100010D18, symSize: 0x4C }
  - { offsetInCU: 0x198AD, offset: 0x198AD, size: 0x8, addend: 0x0, symName: __ZNSt3__16__treeINS_12__value_typeINS_12basic_stringIcNS_11char_traitsIcEENS_9allocatorIcEEEENS_6vectorIdNS5_IdEEEEEENS_19__map_value_compareIS7_SB_NS_4lessIS7_EELb1EEENS5_ISB_EEE18_DetachedTreeCache18__detach_from_treeEPSH_, symObjAddr: 0xCB40, symBinAddr: 0x100010D64, symSize: 0xA0 }
  - { offsetInCU: 0x198E2, offset: 0x198E2, size: 0x8, addend: 0x0, symName: __ZNSt3__16__treeINS_12__value_typeINS_12basic_stringIcNS_11char_traitsIcEENS_9allocatorIcEEEENS_6vectorIdNS5_IdEEEEEENS_19__map_value_compareIS7_SB_NS_4lessIS7_EELb1EEENS5_ISB_EEE12__find_equalIS7_EERPNS_16__tree_node_baseIPvEERPNS_15__tree_end_nodeISM_EERKT_, symObjAddr: 0xCBE0, symBinAddr: 0x100010E04, symSize: 0x184 }
  - { offsetInCU: 0x1994F, offset: 0x1994F, size: 0x8, addend: 0x0, symName: __ZNSt3__122__tree_key_value_typesINS_12__value_typeINS_12basic_stringIcNS_11char_traitsIcEENS_9allocatorIcEEEENS_6vectorIdNS5_IdEEEEEEE9__get_keyB8ue170006IKNS_4pairIKS7_SA_EEEENS_9enable_ifIXsr17__is_same_uncvrefIT_SG_EE5valueERSF_E4typeERSJ_, symObjAddr: 0xCD64, symBinAddr: 0x100010F88, symSize: 0x14 }
  - { offsetInCU: 0x1997C, offset: 0x1997C, size: 0x8, addend: 0x0, symName: __ZNSt3__112__value_typeINS_12basic_stringIcNS_11char_traitsIcEENS_9allocatorIcEEEENS_6vectorIdNS4_IdEEEEEaSB8ue170006IRKNS_4pairIKS6_S9_EEvEERSA_OT_, symObjAddr: 0xCD78, symBinAddr: 0x100010F9C, symSize: 0x54 }
  - { offsetInCU: 0x199BB, offset: 0x199BB, size: 0x8, addend: 0x0, symName: __ZNSt3__16__treeINS_12__value_typeINS_12basic_stringIcNS_11char_traitsIcEENS_9allocatorIcEEEENS_6vectorIdNS5_IdEEEEEENS_19__map_value_compareIS7_SB_NS_4lessIS7_EELb1EEENS5_ISB_EEE16__insert_node_atEPNS_15__tree_end_nodeIPNS_16__tree_node_baseIPvEEEERSM_SM_, symObjAddr: 0xCDCC, symBinAddr: 0x100010FF0, symSize: 0xCC }
  - { offsetInCU: 0x19A10, offset: 0x19A10, size: 0x8, addend: 0x0, symName: __ZNSt3__115__tree_iteratorINS_12__value_typeINS_12basic_stringIcNS_11char_traitsIcEENS_9allocatorIcEEEENS_6vectorIdNS5_IdEEEEEEPNS_11__tree_nodeISB_PvEElEC1B8ue170006ESF_, symObjAddr: 0xCE98, symBinAddr: 0x1000110BC, symSize: 0x34 }
  - { offsetInCU: 0x19A4F, offset: 0x19A4F, size: 0x8, addend: 0x0, symName: __ZNSt3__14pairINS_15__tree_iteratorINS_12__value_typeINS_12basic_stringIcNS_11char_traitsIcEENS_9allocatorIcEEEENS_6vectorIdNS6_IdEEEEEEPNS_11__tree_nodeISC_PvEElEEbEC1B8ue170006ISH_RbLSE_0EEEOT_OT0_, symObjAddr: 0xCECC, symBinAddr: 0x1000110F0, symSize: 0x3C }
  - { offsetInCU: 0x19AAD, offset: 0x19AAD, size: 0x8, addend: 0x0, symName: __ZNKSt3__16__treeINS_12__value_typeINS_12basic_stringIcNS_11char_traitsIcEENS_9allocatorIcEEEENS_6vectorIdNS5_IdEEEEEENS_19__map_value_compareIS7_SB_NS_4lessIS7_EELb1EEENS5_ISB_EEE10__root_ptrB8ue170006Ev, symObjAddr: 0xCF08, symBinAddr: 0x10001112C, symSize: 0x24 }
  - { offsetInCU: 0x19AD3, offset: 0x19AD3, size: 0x8, addend: 0x0, symName: __ZNSt3__16__treeINS_12__value_typeINS_12basic_stringIcNS_11char_traitsIcEENS_9allocatorIcEEEENS_6vectorIdNS5_IdEEEEEENS_19__map_value_compareIS7_SB_NS_4lessIS7_EELb1EEENS5_ISB_EEE10value_compB8ue170006Ev, symObjAddr: 0xCF2C, symBinAddr: 0x100011150, symSize: 0x28 }
  - { offsetInCU: 0x19AF9, offset: 0x19AF9, size: 0x8, addend: 0x0, symName: __ZNKSt3__119__map_value_compareINS_12basic_stringIcNS_11char_traitsIcEENS_9allocatorIcEEEENS_12__value_typeIS6_NS_6vectorIdNS4_IdEEEEEENS_4lessIS6_EELb1EEclB8ue170006ERKS6_RKSB_, symObjAddr: 0xCF54, symBinAddr: 0x100011178, symSize: 0x50 }
  - { offsetInCU: 0x19B3D, offset: 0x19B3D, size: 0x8, addend: 0x0, symName: __ZNKSt3__119__map_value_compareINS_12basic_stringIcNS_11char_traitsIcEENS_9allocatorIcEEEENS_12__value_typeIS6_NS_6vectorIdNS4_IdEEEEEENS_4lessIS6_EELb1EEclB8ue170006ERKSB_RKS6_, symObjAddr: 0xCFA4, symBinAddr: 0x1000111C8, symSize: 0x48 }
  - { offsetInCU: 0x19B81, offset: 0x19B81, size: 0x8, addend: 0x0, symName: __ZNSt3__117__compressed_pairImNS_19__map_value_compareINS_12basic_stringIcNS_11char_traitsIcEENS_9allocatorIcEEEENS_12__value_typeIS7_NS_6vectorIdNS5_IdEEEEEENS_4lessIS7_EELb1EEEE6secondB8ue170006Ev, symObjAddr: 0xCFEC, symBinAddr: 0x100011210, symSize: 0x24 }
  - { offsetInCU: 0x19BA7, offset: 0x19BA7, size: 0x8, addend: 0x0, symName: __ZNSt3__122__compressed_pair_elemINS_19__map_value_compareINS_12basic_stringIcNS_11char_traitsIcEENS_9allocatorIcEEEENS_12__value_typeIS7_NS_6vectorIdNS5_IdEEEEEENS_4lessIS7_EELb1EEELi1ELb1EE5__getB8ue170006Ev, symObjAddr: 0xD010, symBinAddr: 0x100011234, symSize: 0x14 }
  - { offsetInCU: 0x19BCD, offset: 0x19BCD, size: 0x8, addend: 0x0, symName: __ZNKSt3__112__value_typeINS_12basic_stringIcNS_11char_traitsIcEENS_9allocatorIcEEEENS_6vectorIdNS4_IdEEEEE11__get_valueB8ue170006Ev, symObjAddr: 0xD024, symBinAddr: 0x100011248, symSize: 0x14 }
  - { offsetInCU: 0x19BF3, offset: 0x19BF3, size: 0x8, addend: 0x0, symName: __ZNSt3__112__value_typeINS_12basic_stringIcNS_11char_traitsIcEENS_9allocatorIcEEEENS_6vectorIdNS4_IdEEEEE5__refB8ue170006Ev, symObjAddr: 0xD038, symBinAddr: 0x10001125C, symSize: 0x44 }
  - { offsetInCU: 0x19C28, offset: 0x19C28, size: 0x8, addend: 0x0, symName: __ZNSt3__14pairIRNS_12basic_stringIcNS_11char_traitsIcEENS_9allocatorIcEEEERNS_6vectorIdNS4_IdEEEEEaSB8ue170006IKS6_SA_LPv0EEERSC_RKNS0_IT_T0_EE, symObjAddr: 0xD07C, symBinAddr: 0x1000112A0, symSize: 0x4C }
  - { offsetInCU: 0x19C75, offset: 0x19C75, size: 0x8, addend: 0x0, symName: __ZNSt3__14pairIRNS_12basic_stringIcNS_11char_traitsIcEENS_9allocatorIcEEEERNS_6vectorIdNS4_IdEEEEEC1B8ue170006ILb1ELPv0EEES7_SB_, symObjAddr: 0xD0C8, symBinAddr: 0x1000112EC, symSize: 0x3C }
  - { offsetInCU: 0x19CCB, offset: 0x19CCB, size: 0x8, addend: 0x0, symName: __ZNSt3__14pairIRNS_12basic_stringIcNS_11char_traitsIcEENS_9allocatorIcEEEERNS_6vectorIdNS4_IdEEEEEC2B8ue170006ILb1ELPv0EEES7_SB_, symObjAddr: 0xD104, symBinAddr: 0x100011328, symSize: 0x2C }
  - { offsetInCU: 0x19D21, offset: 0x19D21, size: 0x8, addend: 0x0, symName: __ZNSt3__115__tree_iteratorINS_12__value_typeINS_12basic_stringIcNS_11char_traitsIcEENS_9allocatorIcEEEENS_6vectorIdNS5_IdEEEEEEPNS_11__tree_nodeISB_PvEElEC2B8ue170006ESF_, symObjAddr: 0xD130, symBinAddr: 0x100011354, symSize: 0x20 }
  - { offsetInCU: 0x19D5A, offset: 0x19D5A, size: 0x8, addend: 0x0, symName: __ZNSt3__14pairINS_15__tree_iteratorINS_12__value_typeINS_12basic_stringIcNS_11char_traitsIcEENS_9allocatorIcEEEENS_6vectorIdNS6_IdEEEEEEPNS_11__tree_nodeISC_PvEElEEbEC2B8ue170006ISH_RbLSE_0EEEOT_OT0_, symObjAddr: 0xD150, symBinAddr: 0x100011374, symSize: 0x38 }
  - { offsetInCU: 0x19DB8, offset: 0x19DB8, size: 0x8, addend: 0x0, symName: __ZNSt3__16__treeINS_12__value_typeINS_12basic_stringIcNS_11char_traitsIcEENS_9allocatorIcEEEENS_6vectorIdNS5_IdEEEEEENS_19__map_value_compareIS7_SB_NS_4lessIS7_EELb1EEENS5_ISB_EEE18_DetachedTreeCache13__detach_nextEPNS_11__tree_nodeISB_PvEE, symObjAddr: 0xD188, symBinAddr: 0x1000113AC, symSize: 0xF0 }
  - { offsetInCU: 0x19DDE, offset: 0x19DDE, size: 0x8, addend: 0x0, symName: __ZNSt3__16__treeINS_12__value_typeINS_12basic_stringIcNS_11char_traitsIcEENS_9allocatorIcEEEENS_6vectorIdNS5_IdEEEEEENS_19__map_value_compareIS7_SB_NS_4lessIS7_EELb1EEENS5_ISB_EEE18_DetachedTreeCacheD2B8ue170006Ev, symObjAddr: 0xD2E8, symBinAddr: 0x10001150C, symSize: 0x9C }
  - { offsetInCU: 0x19E08, offset: 0x19E08, size: 0x8, addend: 0x0, symName: __ZNSt3__16__treeINS_12__value_typeINS_12basic_stringIcNS_11char_traitsIcEENS_9allocatorIcEEEENS_6vectorIdNS5_IdEEEEEENS_19__map_value_compareIS7_SB_NS_4lessIS7_EELb1EEENS5_ISB_EEE25__emplace_unique_key_argsIS7_JRKNS_4pairIKS7_SA_EEEEENSJ_INS_15__tree_iteratorISB_PNS_11__tree_nodeISB_PvEElEEbEERKT_DpOT0_, symObjAddr: 0xD384, symBinAddr: 0x1000115A8, symSize: 0xF0 }
  - { offsetInCU: 0x19EB4, offset: 0x19EB4, size: 0x8, addend: 0x0, symName: __ZNSt3__16__treeINS_12__value_typeINS_12basic_stringIcNS_11char_traitsIcEENS_9allocatorIcEEEENS_6vectorIdNS5_IdEEEEEENS_19__map_value_compareIS7_SB_NS_4lessIS7_EELb1EEENS5_ISB_EEE16__construct_nodeIJRKNS_4pairIKS7_SA_EEEEENS_10unique_ptrINS_11__tree_nodeISB_PvEENS_22__tree_node_destructorINS5_ISR_EEEEEEDpOT_, symObjAddr: 0xD474, symBinAddr: 0x100011698, symSize: 0x110 }
  - { offsetInCU: 0x19F15, offset: 0x19F15, size: 0x8, addend: 0x0, symName: __ZNKSt3__110unique_ptrINS_11__tree_nodeINS_12__value_typeINS_12basic_stringIcNS_11char_traitsIcEENS_9allocatorIcEEEENS_6vectorIdNS6_IdEEEEEEPvEENS_22__tree_node_destructorINS6_ISE_EEEEE3getB8ue170006Ev, symObjAddr: 0xD584, symBinAddr: 0x1000117A8, symSize: 0x28 }
  - { offsetInCU: 0x19F3B, offset: 0x19F3B, size: 0x8, addend: 0x0, symName: __ZNSt3__110unique_ptrINS_11__tree_nodeINS_12__value_typeINS_12basic_stringIcNS_11char_traitsIcEENS_9allocatorIcEEEENS_6vectorIdNS6_IdEEEEEEPvEENS_22__tree_node_destructorINS6_ISE_EEEEE7releaseB8ue170006Ev, symObjAddr: 0xD5AC, symBinAddr: 0x1000117D0, symSize: 0x44 }
  - { offsetInCU: 0x19F70, offset: 0x19F70, size: 0x8, addend: 0x0, symName: __ZNSt3__110unique_ptrINS_11__tree_nodeINS_12__value_typeINS_12basic_stringIcNS_11char_traitsIcEENS_9allocatorIcEEEENS_6vectorIdNS6_IdEEEEEEPvEENS_22__tree_node_destructorINS6_ISE_EEEEED1B8ue170006Ev, symObjAddr: 0xD5F0, symBinAddr: 0x100011814, symSize: 0x2C }
  - { offsetInCU: 0x19F9A, offset: 0x19F9A, size: 0x8, addend: 0x0, symName: __ZNSt3__116allocator_traitsINS_9allocatorINS_11__tree_nodeINS_12__value_typeINS_12basic_stringIcNS_11char_traitsIcEENS1_IcEEEENS_6vectorIdNS1_IdEEEEEEPvEEEEE8allocateB8ue170006ERSF_m, symObjAddr: 0xD61C, symBinAddr: 0x100011840, symSize: 0x2C }
  - { offsetInCU: 0x19FCD, offset: 0x19FCD, size: 0x8, addend: 0x0, symName: __ZNSt3__122__tree_node_destructorINS_9allocatorINS_11__tree_nodeINS_12__value_typeINS_12basic_stringIcNS_11char_traitsIcEENS1_IcEEEENS_6vectorIdNS1_IdEEEEEEPvEEEEEC1B8ue170006ERSF_b, symObjAddr: 0xD648, symBinAddr: 0x10001186C, symSize: 0x48 }
  - { offsetInCU: 0x1A01B, offset: 0x1A01B, size: 0x8, addend: 0x0, symName: __ZNSt3__110unique_ptrINS_11__tree_nodeINS_12__value_typeINS_12basic_stringIcNS_11char_traitsIcEENS_9allocatorIcEEEENS_6vectorIdNS6_IdEEEEEEPvEENS_22__tree_node_destructorINS6_ISE_EEEEEC1B8ue170006ILb1EvEEPSE_NS_16__dependent_typeINS_27__unique_ptr_deleter_sfinaeISH_EEXT_EE20__good_rval_ref_typeE, symObjAddr: 0xD690, symBinAddr: 0x1000118B4, symSize: 0x3C }
  - { offsetInCU: 0x1A06C, offset: 0x1A06C, size: 0x8, addend: 0x0, symName: __ZNSt3__116allocator_traitsINS_9allocatorINS_11__tree_nodeINS_12__value_typeINS_12basic_stringIcNS_11char_traitsIcEENS1_IcEEEENS_6vectorIdNS1_IdEEEEEEPvEEEEE9constructB8ue170006INS_4pairIKS8_SB_EEJRKSK_EvEEvRSF_PT_DpOT0_, symObjAddr: 0xD6CC, symBinAddr: 0x1000118F0, symSize: 0x34 }
  - { offsetInCU: 0x1A0C3, offset: 0x1A0C3, size: 0x8, addend: 0x0, symName: __ZNKSt3__110unique_ptrINS_11__tree_nodeINS_12__value_typeINS_12basic_stringIcNS_11char_traitsIcEENS_9allocatorIcEEEENS_6vectorIdNS6_IdEEEEEEPvEENS_22__tree_node_destructorINS6_ISE_EEEEEptB8ue170006Ev, symObjAddr: 0xD700, symBinAddr: 0x100011924, symSize: 0x28 }
  - { offsetInCU: 0x1A0E9, offset: 0x1A0E9, size: 0x8, addend: 0x0, symName: __ZNSt3__110unique_ptrINS_11__tree_nodeINS_12__value_typeINS_12basic_stringIcNS_11char_traitsIcEENS_9allocatorIcEEEENS_6vectorIdNS6_IdEEEEEEPvEENS_22__tree_node_destructorINS6_ISE_EEEEE11get_deleterB8ue170006Ev, symObjAddr: 0xD728, symBinAddr: 0x10001194C, symSize: 0x24 }
  - { offsetInCU: 0x1A10F, offset: 0x1A10F, size: 0x8, addend: 0x0, symName: __ZNSt3__19allocatorINS_11__tree_nodeINS_12__value_typeINS_12basic_stringIcNS_11char_traitsIcEENS0_IcEEEENS_6vectorIdNS0_IdEEEEEEPvEEE8allocateB8ue170006Em, symObjAddr: 0xD74C, symBinAddr: 0x100011970, symSize: 0x5C }
  - { offsetInCU: 0x1A14D, offset: 0x1A14D, size: 0x8, addend: 0x0, symName: __ZNSt3__116allocator_traitsINS_9allocatorINS_11__tree_nodeINS_12__value_typeINS_12basic_stringIcNS_11char_traitsIcEENS1_IcEEEENS_6vectorIdNS1_IdEEEEEEPvEEEEE8max_sizeB8ue170006ISF_vEEmRKSF_, symObjAddr: 0xD7A8, symBinAddr: 0x1000119CC, symSize: 0x24 }
  - { offsetInCU: 0x1A17B, offset: 0x1A17B, size: 0x8, addend: 0x0, symName: __ZNKSt3__19allocatorINS_11__tree_nodeINS_12__value_typeINS_12basic_stringIcNS_11char_traitsIcEENS0_IcEEEENS_6vectorIdNS0_IdEEEEEEPvEEE8max_sizeB8ue170006Ev, symObjAddr: 0xD7CC, symBinAddr: 0x1000119F0, symSize: 0x18 }
  - { offsetInCU: 0x1A1A1, offset: 0x1A1A1, size: 0x8, addend: 0x0, symName: __ZNSt3__122__tree_node_destructorINS_9allocatorINS_11__tree_nodeINS_12__value_typeINS_12basic_stringIcNS_11char_traitsIcEENS1_IcEEEENS_6vectorIdNS1_IdEEEEEEPvEEEEEC2B8ue170006ERSF_b, symObjAddr: 0xD7E4, symBinAddr: 0x100011A08, symSize: 0x38 }
  - { offsetInCU: 0x1A1E9, offset: 0x1A1E9, size: 0x8, addend: 0x0, symName: __ZNSt3__110unique_ptrINS_11__tree_nodeINS_12__value_typeINS_12basic_stringIcNS_11char_traitsIcEENS_9allocatorIcEEEENS_6vectorIdNS6_IdEEEEEEPvEENS_22__tree_node_destructorINS6_ISE_EEEEEC2B8ue170006ILb1EvEEPSE_NS_16__dependent_typeINS_27__unique_ptr_deleter_sfinaeISH_EEXT_EE20__good_rval_ref_typeE, symObjAddr: 0xD81C, symBinAddr: 0x100011A40, symSize: 0x48 }
  - { offsetInCU: 0x1A23A, offset: 0x1A23A, size: 0x8, addend: 0x0, symName: __ZNSt3__117__compressed_pairIPNS_11__tree_nodeINS_12__value_typeINS_12basic_stringIcNS_11char_traitsIcEENS_9allocatorIcEEEENS_6vectorIdNS6_IdEEEEEEPvEENS_22__tree_node_destructorINS6_ISE_EEEEEC1B8ue170006IRSF_SI_EEOT_OT0_, symObjAddr: 0xD864, symBinAddr: 0x100011A88, symSize: 0x3C }
  - { offsetInCU: 0x1A292, offset: 0x1A292, size: 0x8, addend: 0x0, symName: __ZNSt3__117__compressed_pairIPNS_11__tree_nodeINS_12__value_typeINS_12basic_stringIcNS_11char_traitsIcEENS_9allocatorIcEEEENS_6vectorIdNS6_IdEEEEEEPvEENS_22__tree_node_destructorINS6_ISE_EEEEEC2B8ue170006IRSF_SI_EEOT_OT0_, symObjAddr: 0xD8A0, symBinAddr: 0x100011AC4, symSize: 0x48 }
  - { offsetInCU: 0x1A2EA, offset: 0x1A2EA, size: 0x8, addend: 0x0, symName: __ZNSt3__122__compressed_pair_elemIPNS_11__tree_nodeINS_12__value_typeINS_12basic_stringIcNS_11char_traitsIcEENS_9allocatorIcEEEENS_6vectorIdNS6_IdEEEEEEPvEELi0ELb0EEC2B8ue170006IRSF_vEEOT_, symObjAddr: 0xD8E8, symBinAddr: 0x100011B0C, symSize: 0x24 }
  - { offsetInCU: 0x1A32C, offset: 0x1A32C, size: 0x8, addend: 0x0, symName: __ZNSt3__122__compressed_pair_elemINS_22__tree_node_destructorINS_9allocatorINS_11__tree_nodeINS_12__value_typeINS_12basic_stringIcNS_11char_traitsIcEENS2_IcEEEENS_6vectorIdNS2_IdEEEEEEPvEEEEEELi1ELb0EEC2B8ue170006ISH_vEEOT_, symObjAddr: 0xD90C, symBinAddr: 0x100011B30, symSize: 0x24 }
  - { offsetInCU: 0x1A36E, offset: 0x1A36E, size: 0x8, addend: 0x0, symName: __ZNSt3__19allocatorINS_11__tree_nodeINS_12__value_typeINS_12basic_stringIcNS_11char_traitsIcEENS0_IcEEEENS_6vectorIdNS0_IdEEEEEEPvEEE9constructB8ue170006INS_4pairIKS7_SA_EEJRKSI_EEEvPT_DpOT0_, symObjAddr: 0xD930, symBinAddr: 0x100011B54, symSize: 0x30 }
  - { offsetInCU: 0x1A3C4, offset: 0x1A3C4, size: 0x8, addend: 0x0, symName: __ZNSt3__14pairIKNS_12basic_stringIcNS_11char_traitsIcEENS_9allocatorIcEEEENS_6vectorIdNS4_IdEEEEEC1B8ue170006ERKSB_, symObjAddr: 0xD960, symBinAddr: 0x100011B84, symSize: 0x34 }
  - { offsetInCU: 0x1A3F8, offset: 0x1A3F8, size: 0x8, addend: 0x0, symName: __ZNSt3__14pairIKNS_12basic_stringIcNS_11char_traitsIcEENS_9allocatorIcEEEENS_6vectorIdNS4_IdEEEEEC2B8ue170006ERKSB_, symObjAddr: 0xD994, symBinAddr: 0x100011BB8, symSize: 0x70 }
  - { offsetInCU: 0x1A42C, offset: 0x1A42C, size: 0x8, addend: 0x0, symName: __ZNKSt3__117__compressed_pairIPNS_11__tree_nodeINS_12__value_typeINS_12basic_stringIcNS_11char_traitsIcEENS_9allocatorIcEEEENS_6vectorIdNS6_IdEEEEEEPvEENS_22__tree_node_destructorINS6_ISE_EEEEE5firstB8ue170006Ev, symObjAddr: 0xDA04, symBinAddr: 0x100011C28, symSize: 0x24 }
  - { offsetInCU: 0x1A452, offset: 0x1A452, size: 0x8, addend: 0x0, symName: __ZNKSt3__122__compressed_pair_elemIPNS_11__tree_nodeINS_12__value_typeINS_12basic_stringIcNS_11char_traitsIcEENS_9allocatorIcEEEENS_6vectorIdNS6_IdEEEEEEPvEELi0ELb0EE5__getB8ue170006Ev, symObjAddr: 0xDA28, symBinAddr: 0x100011C4C, symSize: 0x14 }
  - { offsetInCU: 0x1A478, offset: 0x1A478, size: 0x8, addend: 0x0, symName: __ZNSt3__117__compressed_pairIPNS_11__tree_nodeINS_12__value_typeINS_12basic_stringIcNS_11char_traitsIcEENS_9allocatorIcEEEENS_6vectorIdNS6_IdEEEEEEPvEENS_22__tree_node_destructorINS6_ISE_EEEEE6secondB8ue170006Ev, symObjAddr: 0xDA3C, symBinAddr: 0x100011C60, symSize: 0x28 }
  - { offsetInCU: 0x1A49E, offset: 0x1A49E, size: 0x8, addend: 0x0, symName: __ZNSt3__122__compressed_pair_elemINS_22__tree_node_destructorINS_9allocatorINS_11__tree_nodeINS_12__value_typeINS_12basic_stringIcNS_11char_traitsIcEENS2_IcEEEENS_6vectorIdNS2_IdEEEEEEPvEEEEEELi1ELb0EE5__getB8ue170006Ev, symObjAddr: 0xDA64, symBinAddr: 0x100011C88, symSize: 0x14 }
  - { offsetInCU: 0x1A4C4, offset: 0x1A4C4, size: 0x8, addend: 0x0, symName: __ZNSt3__117__compressed_pairIPNS_11__tree_nodeINS_12__value_typeINS_12basic_stringIcNS_11char_traitsIcEENS_9allocatorIcEEEENS_6vectorIdNS6_IdEEEEEEPvEENS_22__tree_node_destructorINS6_ISE_EEEEE5firstB8ue170006Ev, symObjAddr: 0xDA78, symBinAddr: 0x100011C9C, symSize: 0x24 }
  - { offsetInCU: 0x1A4EA, offset: 0x1A4EA, size: 0x8, addend: 0x0, symName: __ZNSt3__122__compressed_pair_elemIPNS_11__tree_nodeINS_12__value_typeINS_12basic_stringIcNS_11char_traitsIcEENS_9allocatorIcEEEENS_6vectorIdNS6_IdEEEEEEPvEELi0ELb0EE5__getB8ue170006Ev, symObjAddr: 0xDA9C, symBinAddr: 0x100011CC0, symSize: 0x14 }
  - { offsetInCU: 0x1A510, offset: 0x1A510, size: 0x8, addend: 0x0, symName: __ZNSt3__110unique_ptrINS_11__tree_nodeINS_12__value_typeINS_12basic_stringIcNS_11char_traitsIcEENS_9allocatorIcEEEENS_6vectorIdNS6_IdEEEEEEPvEENS_22__tree_node_destructorINS6_ISE_EEEEED2B8ue170006Ev, symObjAddr: 0xDAB0, symBinAddr: 0x100011CD4, symSize: 0x30 }
  - { offsetInCU: 0x1A53A, offset: 0x1A53A, size: 0x8, addend: 0x0, symName: __ZNSt3__110unique_ptrINS_11__tree_nodeINS_12__value_typeINS_12basic_stringIcNS_11char_traitsIcEENS_9allocatorIcEEEENS_6vectorIdNS6_IdEEEEEEPvEENS_22__tree_node_destructorINS6_ISE_EEEEE5resetB8ue170006EPSE_, symObjAddr: 0xDAE0, symBinAddr: 0x100011D04, symSize: 0x78 }
  - { offsetInCU: 0x1A57E, offset: 0x1A57E, size: 0x8, addend: 0x0, symName: __ZNSt3__122__tree_node_destructorINS_9allocatorINS_11__tree_nodeINS_12__value_typeINS_12basic_stringIcNS_11char_traitsIcEENS1_IcEEEENS_6vectorIdNS1_IdEEEEEEPvEEEEEclB8ue170006EPSE_, symObjAddr: 0xDB58, symBinAddr: 0x100011D7C, symSize: 0x94 }
  - { offsetInCU: 0x1A5B3, offset: 0x1A5B3, size: 0x8, addend: 0x0, symName: __ZNSt3__16vectorIdNS_9allocatorIdEEEC2B8ue170006Ev, symObjAddr: 0xDBEC, symBinAddr: 0x100011E10, symSize: 0x4C }
  - { offsetInCU: 0x1A5DD, offset: 0x1A5DD, size: 0x8, addend: 0x0, symName: __ZNSt3__16__treeINS_12__value_typeINS_12basic_stringIcNS_11char_traitsIcEENS_9allocatorIcEEEENS_3mapIS7_NS_6vectorIdNS5_IdEEEENS_4lessIS7_EENS5_INS_4pairIKS7_SB_EEEEEEEENS_19__map_value_compareIS7_SJ_SD_Lb1EEENS5_ISJ_EEE4findIS7_EENS_15__tree_iteratorISJ_PNS_11__tree_nodeISJ_PvEElEERKT_, symObjAddr: 0xDC38, symBinAddr: 0x100011E5C, symSize: 0xF8 }
  - { offsetInCU: 0x1A62C, offset: 0x1A62C, size: 0x8, addend: 0x0, symName: __ZNSt3__114__map_iteratorINS_15__tree_iteratorINS_12__value_typeINS_12basic_stringIcNS_11char_traitsIcEENS_9allocatorIcEEEENS_3mapIS8_NS_6vectorIdNS6_IdEEEENS_4lessIS8_EENS6_INS_4pairIKS8_SC_EEEEEEEEPNS_11__tree_nodeISK_PvEElEEEC1B8ue170006ESP_, symObjAddr: 0xDD30, symBinAddr: 0x100011F54, symSize: 0x34 }
  - { offsetInCU: 0x1A665, offset: 0x1A665, size: 0x8, addend: 0x0, symName: __ZNSt3__16__treeINS_12__value_typeINS_12basic_stringIcNS_11char_traitsIcEENS_9allocatorIcEEEENS_3mapIS7_NS_6vectorIdNS5_IdEEEENS_4lessIS7_EENS5_INS_4pairIKS7_SB_EEEEEEEENS_19__map_value_compareIS7_SJ_SD_Lb1EEENS5_ISJ_EEE13__lower_boundIS7_EENS_15__tree_iteratorISJ_PNS_11__tree_nodeISJ_PvEElEERKT_ST_PNS_15__tree_end_nodeIPNS_16__tree_node_baseISR_EEEE, symObjAddr: 0xDD64, symBinAddr: 0x100011F88, symSize: 0xA4 }
  - { offsetInCU: 0x1A6C3, offset: 0x1A6C3, size: 0x8, addend: 0x0, symName: __ZNSt3__16__treeINS_12__value_typeINS_12basic_stringIcNS_11char_traitsIcEENS_9allocatorIcEEEENS_3mapIS7_NS_6vectorIdNS5_IdEEEENS_4lessIS7_EENS5_INS_4pairIKS7_SB_EEEEEEEENS_19__map_value_compareIS7_SJ_SD_Lb1EEENS5_ISJ_EEE3endB8ue170006Ev, symObjAddr: 0xDE3C, symBinAddr: 0x100012060, symSize: 0x34 }
  - { offsetInCU: 0x1A6E9, offset: 0x1A6E9, size: 0x8, addend: 0x0, symName: __ZNKSt3__115__tree_iteratorINS_12__value_typeINS_12basic_stringIcNS_11char_traitsIcEENS_9allocatorIcEEEENS_3mapIS7_NS_6vectorIdNS5_IdEEEENS_4lessIS7_EENS5_INS_4pairIKS7_SB_EEEEEEEEPNS_11__tree_nodeISJ_PvEElEdeB8ue170006Ev, symObjAddr: 0xDE70, symBinAddr: 0x100012094, symSize: 0x28 }
  - { offsetInCU: 0x1A70F, offset: 0x1A70F, size: 0x8, addend: 0x0, symName: __ZNSt3__115__tree_iteratorINS_12__value_typeINS_12basic_stringIcNS_11char_traitsIcEENS_9allocatorIcEEEENS_3mapIS7_NS_6vectorIdNS5_IdEEEENS_4lessIS7_EENS5_INS_4pairIKS7_SB_EEEEEEEEPNS_11__tree_nodeISJ_PvEElEC1B8ue170006EPNS_15__tree_end_nodeIPNS_16__tree_node_baseISL_EEEE, symObjAddr: 0xDE98, symBinAddr: 0x1000120BC, symSize: 0x34 }
  - { offsetInCU: 0x1A748, offset: 0x1A748, size: 0x8, addend: 0x0, symName: __ZNSt3__115__tree_iteratorINS_12__value_typeINS_12basic_stringIcNS_11char_traitsIcEENS_9allocatorIcEEEENS_3mapIS7_NS_6vectorIdNS5_IdEEEENS_4lessIS7_EENS5_INS_4pairIKS7_SB_EEEEEEEEPNS_11__tree_nodeISJ_PvEElEC2B8ue170006EPNS_15__tree_end_nodeIPNS_16__tree_node_baseISL_EEEE, symObjAddr: 0xDECC, symBinAddr: 0x1000120F0, symSize: 0x20 }
  - { offsetInCU: 0x1A781, offset: 0x1A781, size: 0x8, addend: 0x0, symName: __ZNSt3__114__map_iteratorINS_15__tree_iteratorINS_12__value_typeINS_12basic_stringIcNS_11char_traitsIcEENS_9allocatorIcEEEENS_3mapIS8_NS_6vectorIdNS6_IdEEEENS_4lessIS8_EENS6_INS_4pairIKS8_SC_EEEEEEEEPNS_11__tree_nodeISK_PvEElEEEC2B8ue170006ESP_, symObjAddr: 0xDF1C, symBinAddr: 0x100012140, symSize: 0x20 }
  - { offsetInCU: 0x1A7BA, offset: 0x1A7BA, size: 0x8, addend: 0x0, symName: __ZNSt3__16__treeINS_12__value_typeINS_12basic_stringIcNS_11char_traitsIcEENS_9allocatorIcEEEENS_3mapIS7_NS_6vectorIdNS5_IdEEEENS_4lessIS7_EENS5_INS_4pairIKS7_SB_EEEEEEEENS_19__map_value_compareIS7_SJ_SD_Lb1EEENS5_ISJ_EEE25__emplace_unique_key_argsIS7_JRKNS_21piecewise_construct_tENS_5tupleIJRSF_EEENSS_IJEEEEEENSE_INS_15__tree_iteratorISJ_PNS_11__tree_nodeISJ_PvEElEEbEERKT_DpOT0_, symObjAddr: 0xDF3C, symBinAddr: 0x100012160, symSize: 0x100 }
  - { offsetInCU: 0x1A890, offset: 0x1A890, size: 0x8, addend: 0x0, symName: __ZNSt3__16__treeINS_12__value_typeINS_12basic_stringIcNS_11char_traitsIcEENS_9allocatorIcEEEENS_3mapIS7_NS_6vectorIdNS5_IdEEEENS_4lessIS7_EENS5_INS_4pairIKS7_SB_EEEEEEEENS_19__map_value_compareIS7_SJ_SD_Lb1EEENS5_ISJ_EEE16__construct_nodeIJRKNS_21piecewise_construct_tENS_5tupleIJRSF_EEENSS_IJEEEEEENS_10unique_ptrINS_11__tree_nodeISJ_PvEENS_22__tree_node_destructorINS5_ISZ_EEEEEEDpOT_, symObjAddr: 0xE068, symBinAddr: 0x10001228C, symSize: 0x120 }
  - { offsetInCU: 0x1A919, offset: 0x1A919, size: 0x8, addend: 0x0, symName: __ZNSt3__116allocator_traitsINS_9allocatorINS_11__tree_nodeINS_12__value_typeINS_12basic_stringIcNS_11char_traitsIcEENS1_IcEEEENS_3mapIS8_NS_6vectorIdNS1_IdEEEENS_4lessIS8_EENS1_INS_4pairIKS8_SC_EEEEEEEEPvEEEEE9constructB8ue170006INSF_ISG_SJ_EEJRKNS_21piecewise_construct_tENS_5tupleIJRSG_EEENSU_IJEEEEvEEvRSN_PT_DpOT0_, symObjAddr: 0xE188, symBinAddr: 0x1000123AC, symSize: 0x44 }
  - { offsetInCU: 0x1A998, offset: 0x1A998, size: 0x8, addend: 0x0, symName: __ZNSt3__19allocatorINS_11__tree_nodeINS_12__value_typeINS_12basic_stringIcNS_11char_traitsIcEENS0_IcEEEENS_3mapIS7_NS_6vectorIdNS0_IdEEEENS_4lessIS7_EENS0_INS_4pairIKS7_SB_EEEEEEEEPvEEE9constructB8ue170006INSE_ISF_SI_EEJRKNS_21piecewise_construct_tENS_5tupleIJRSF_EEENSS_IJEEEEEEvPT_DpOT0_, symObjAddr: 0xE1CC, symBinAddr: 0x1000123F0, symSize: 0x44 }
  - { offsetInCU: 0x1AA14, offset: 0x1AA14, size: 0x8, addend: 0x0, symName: __ZNSt3__14pairIKNS_12basic_stringIcNS_11char_traitsIcEENS_9allocatorIcEEEENS_3mapIS6_NS_6vectorIdNS4_IdEEEENS_4lessIS6_EENS4_INS0_IS7_SB_EEEEEEEC1B8ue170006IJRS7_EJEEENS_21piecewise_construct_tENS_5tupleIJDpT_EEENSL_IJDpT0_EEE, symObjAddr: 0xE210, symBinAddr: 0x100012434, symSize: 0x3C }
  - { offsetInCU: 0x1AA7B, offset: 0x1AA7B, size: 0x8, addend: 0x0, symName: __ZNSt3__14pairIKNS_12basic_stringIcNS_11char_traitsIcEENS_9allocatorIcEEEENS_3mapIS6_NS_6vectorIdNS4_IdEEEENS_4lessIS6_EENS4_INS0_IS7_SB_EEEEEEEC1B8ue170006IJRS7_EJEJLm0EEJEEENS_21piecewise_construct_tERNS_5tupleIJDpT_EEERNSL_IJDpT0_EEENS_15__tuple_indicesIJXspT1_EEEENSU_IJXspT2_EEEE, symObjAddr: 0xE24C, symBinAddr: 0x100012470, symSize: 0x3C }
  - { offsetInCU: 0x1AB08, offset: 0x1AB08, size: 0x8, addend: 0x0, symName: __ZNSt3__14pairIKNS_12basic_stringIcNS_11char_traitsIcEENS_9allocatorIcEEEENS_3mapIS6_NS_6vectorIdNS4_IdEEEENS_4lessIS6_EENS4_INS0_IS7_SB_EEEEEEEC2B8ue170006IJRS7_EJEJLm0EEJEEENS_21piecewise_construct_tERNS_5tupleIJDpT_EEERNSL_IJDpT0_EEENS_15__tuple_indicesIJXspT1_EEEENSU_IJXspT2_EEEE, symObjAddr: 0xE288, symBinAddr: 0x1000124AC, symSize: 0x50 }
  - { offsetInCU: 0x1AB95, offset: 0x1AB95, size: 0x8, addend: 0x0, symName: __ZNSt3__112__tuple_leafILm0ERKNS_12basic_stringIcNS_11char_traitsIcEENS_9allocatorIcEEEELb0EE3getB8ue170006Ev, symObjAddr: 0xE2FC, symBinAddr: 0x100012520, symSize: 0x18 }
  - { offsetInCU: 0x1ABBB, offset: 0x1ABBB, size: 0x8, addend: 0x0, symName: __ZNSt3__15tupleIJRKNS_12basic_stringIcNS_11char_traitsIcEENS_9allocatorIcEEEEEEC1B8ue170006INS_4_AndELi0EEES8_, symObjAddr: 0xE314, symBinAddr: 0x100012538, symSize: 0x34 }
  - { offsetInCU: 0x1AC03, offset: 0x1AC03, size: 0x8, addend: 0x0, symName: __ZNSt3__15tupleIJRKNS_12basic_stringIcNS_11char_traitsIcEENS_9allocatorIcEEEEEEC2B8ue170006INS_4_AndELi0EEES8_, symObjAddr: 0xE348, symBinAddr: 0x10001256C, symSize: 0x34 }
  - { offsetInCU: 0x1AC4B, offset: 0x1AC4B, size: 0x8, addend: 0x0, symName: __ZNSt3__112__tuple_implINS_15__tuple_indicesIJLm0EEEEJRKNS_12basic_stringIcNS_11char_traitsIcEENS_9allocatorIcEEEEEEC1B8ue170006IJLm0EEJSA_EJEJEJSA_EEENS1_IJXspT_EEEENS_13__tuple_typesIJDpT0_EEENS1_IJXspT1_EEEENSE_IJDpT2_EEEDpOT3_, symObjAddr: 0xE37C, symBinAddr: 0x1000125A0, symSize: 0x34 }
  - { offsetInCU: 0x1ACDC, offset: 0x1ACDC, size: 0x8, addend: 0x0, symName: __ZNSt3__112__tuple_implINS_15__tuple_indicesIJLm0EEEEJRKNS_12basic_stringIcNS_11char_traitsIcEENS_9allocatorIcEEEEEEC2B8ue170006IJLm0EEJSA_EJEJEJSA_EEENS1_IJXspT_EEEENS_13__tuple_typesIJDpT0_EEENS1_IJXspT1_EEEENSE_IJDpT2_EEEDpOT3_, symObjAddr: 0xE3B0, symBinAddr: 0x1000125D4, symSize: 0x34 }
  - { offsetInCU: 0x1AD6D, offset: 0x1AD6D, size: 0x8, addend: 0x0, symName: __ZNSt3__112__tuple_leafILm0ERKNS_12basic_stringIcNS_11char_traitsIcEENS_9allocatorIcEEEELb0EEC2B8ue170006IS8_vEEOT_, symObjAddr: 0xE3E4, symBinAddr: 0x100012608, symSize: 0x20 }
  - { offsetInCU: 0x1ADB0, offset: 0x1ADB0, size: 0x8, addend: 0x0, symName: __ZNSt3__16__treeINS_12__value_typeINS_12basic_stringIcNS_11char_traitsIcEENS_9allocatorIcEEEENS_6vectorIdNS5_IdEEEEEENS_19__map_value_compareIS7_SB_NS_4lessIS7_EELb1EEENS5_ISB_EEE25__emplace_unique_key_argsIS7_JRKNS_21piecewise_construct_tENS_5tupleIJOS7_EEENSM_IJEEEEEENS_4pairINS_15__tree_iteratorISB_PNS_11__tree_nodeISB_PvEElEEbEERKT_DpOT0_, symObjAddr: 0xE404, symBinAddr: 0x100012628, symSize: 0x100 }
  - { offsetInCU: 0x1AE86, offset: 0x1AE86, size: 0x8, addend: 0x0, symName: __ZNKSt3__115__tree_iteratorINS_12__value_typeINS_12basic_stringIcNS_11char_traitsIcEENS_9allocatorIcEEEENS_6vectorIdNS5_IdEEEEEEPNS_11__tree_nodeISB_PvEElEptB8ue170006Ev, symObjAddr: 0xE504, symBinAddr: 0x100012728, symSize: 0x2C }
  - { offsetInCU: 0x1AEAC, offset: 0x1AEAC, size: 0x8, addend: 0x0, symName: __ZNSt3__16__treeINS_12__value_typeINS_12basic_stringIcNS_11char_traitsIcEENS_9allocatorIcEEEENS_6vectorIdNS5_IdEEEEEENS_19__map_value_compareIS7_SB_NS_4lessIS7_EELb1EEENS5_ISB_EEE16__construct_nodeIJRKNS_21piecewise_construct_tENS_5tupleIJOS7_EEENSM_IJEEEEEENS_10unique_ptrINS_11__tree_nodeISB_PvEENS_22__tree_node_destructorINS5_IST_EEEEEEDpOT_, symObjAddr: 0xE530, symBinAddr: 0x100012754, symSize: 0x120 }
  - { offsetInCU: 0x1AF35, offset: 0x1AF35, size: 0x8, addend: 0x0, symName: __ZNSt3__116allocator_traitsINS_9allocatorINS_11__tree_nodeINS_12__value_typeINS_12basic_stringIcNS_11char_traitsIcEENS1_IcEEEENS_6vectorIdNS1_IdEEEEEEPvEEEEE9constructB8ue170006INS_4pairIKS8_SB_EEJRKNS_21piecewise_construct_tENS_5tupleIJOS8_EEENSO_IJEEEEvEEvRSF_PT_DpOT0_, symObjAddr: 0xE650, symBinAddr: 0x100012874, symSize: 0x44 }
  - { offsetInCU: 0x1AFB4, offset: 0x1AFB4, size: 0x8, addend: 0x0, symName: __ZNSt3__19allocatorINS_11__tree_nodeINS_12__value_typeINS_12basic_stringIcNS_11char_traitsIcEENS0_IcEEEENS_6vectorIdNS0_IdEEEEEEPvEEE9constructB8ue170006INS_4pairIKS7_SA_EEJRKNS_21piecewise_construct_tENS_5tupleIJOS7_EEENSM_IJEEEEEEvPT_DpOT0_, symObjAddr: 0xE694, symBinAddr: 0x1000128B8, symSize: 0x44 }
  - { offsetInCU: 0x1B030, offset: 0x1B030, size: 0x8, addend: 0x0, symName: __ZNSt3__14pairIKNS_12basic_stringIcNS_11char_traitsIcEENS_9allocatorIcEEEENS_6vectorIdNS4_IdEEEEEC1B8ue170006IJOS6_EJEEENS_21piecewise_construct_tENS_5tupleIJDpT_EEENSF_IJDpT0_EEE, symObjAddr: 0xE6D8, symBinAddr: 0x1000128FC, symSize: 0x44 }
  - { offsetInCU: 0x1B097, offset: 0x1B097, size: 0x8, addend: 0x0, symName: __ZNSt3__14pairIKNS_12basic_stringIcNS_11char_traitsIcEENS_9allocatorIcEEEENS_6vectorIdNS4_IdEEEEEC1B8ue170006IJOS6_EJEJLm0EEJEEENS_21piecewise_construct_tERNS_5tupleIJDpT_EEERNSF_IJDpT0_EEENS_15__tuple_indicesIJXspT1_EEEENSO_IJXspT2_EEEE, symObjAddr: 0xE71C, symBinAddr: 0x100012940, symSize: 0x3C }
  - { offsetInCU: 0x1B124, offset: 0x1B124, size: 0x8, addend: 0x0, symName: __ZNSt3__14pairIKNS_12basic_stringIcNS_11char_traitsIcEENS_9allocatorIcEEEENS_6vectorIdNS4_IdEEEEEC2B8ue170006IJOS6_EJEJLm0EEJEEENS_21piecewise_construct_tERNS_5tupleIJDpT_EEERNSF_IJDpT0_EEENS_15__tuple_indicesIJXspT1_EEEENSO_IJXspT2_EEEE, symObjAddr: 0xE758, symBinAddr: 0x10001297C, symSize: 0x50 }
  - { offsetInCU: 0x1B1B1, offset: 0x1B1B1, size: 0x8, addend: 0x0, symName: __ZNSt3__114pointer_traitsIPNS_12__value_typeINS_12basic_stringIcNS_11char_traitsIcEENS_9allocatorIcEEEENS_6vectorIdNS5_IdEEEEEEE10pointer_toB8ue170006ERSB_, symObjAddr: 0xE7A8, symBinAddr: 0x1000129CC, symSize: 0x14 }
  - { offsetInCU: 0x1B1D4, offset: 0x1B1D4, size: 0x8, addend: 0x0, symName: __ZNKSt3__115__tree_iteratorINS_12__value_typeINS_12basic_stringIcNS_11char_traitsIcEENS_9allocatorIcEEEENS_6vectorIdNS5_IdEEEEEEPNS_11__tree_nodeISB_PvEElE8__get_npB8ue170006Ev, symObjAddr: 0xE7BC, symBinAddr: 0x1000129E0, symSize: 0x18 }
  - { offsetInCU: 0x1B1FA, offset: 0x1B1FA, size: 0x8, addend: 0x0, symName: __ZNSt3__16vectorIdNS_9allocatorIdEEE19__copy_assign_allocB8ue170006ERKS3_, symObjAddr: 0xE7D4, symBinAddr: 0x1000129F8, symSize: 0x2C }
  - { offsetInCU: 0x1B22F, offset: 0x1B22F, size: 0x8, addend: 0x0, symName: __ZNSt3__16vectorIdNS_9allocatorIdEEE6assignIPdLi0EEEvT_S6_, symObjAddr: 0xE800, symBinAddr: 0x100012A24, symSize: 0x5C }
  - { offsetInCU: 0x1B284, offset: 0x1B284, size: 0x8, addend: 0x0, symName: __ZNSt3__16vectorIdNS_9allocatorIdEEE19__copy_assign_allocB8ue170006ERKS3_NS_17integral_constantIbLb0EEE, symObjAddr: 0xE85C, symBinAddr: 0x100012A80, symSize: 0x14 }
  - { offsetInCU: 0x1B2C0, offset: 0x1B2C0, size: 0x8, addend: 0x0, symName: __ZNSt3__16vectorIdNS_9allocatorIdEEE18__assign_with_sizeB8ue170006IPdS5_EEvT_T0_l, symObjAddr: 0xE870, symBinAddr: 0x100012A94, symSize: 0x164 }
  - { offsetInCU: 0x1B370, offset: 0x1B370, size: 0x8, addend: 0x0, symName: __ZNSt3__16vectorIdNS_9allocatorIdEEE17__destruct_at_endB8ue170006EPd, symObjAddr: 0xEA34, symBinAddr: 0x100012C58, symSize: 0x4C }
  - { offsetInCU: 0x1B3B4, offset: 0x1B3B4, size: 0x8, addend: 0x0, symName: __ZNSt3__16vectorIdNS_9allocatorIdEEE13__vdeallocateEv, symObjAddr: 0xEA80, symBinAddr: 0x100012CA4, symSize: 0x94 }
  - { offsetInCU: 0x1B3DC, offset: 0x1B3DC, size: 0x8, addend: 0x0, symName: __ZNKSt3__16vectorIdNS_9allocatorIdEEE11__recommendB8ue170006Em, symObjAddr: 0xEB14, symBinAddr: 0x100012D38, symSize: 0xB4 }
  - { offsetInCU: 0x1B431, offset: 0x1B431, size: 0x8, addend: 0x0, symName: __ZNKSt3__16vectorIdNS_9allocatorIdEEE17__annotate_shrinkB8ue170006Em, symObjAddr: 0xEC3C, symBinAddr: 0x100012E60, symSize: 0xB4 }
  - { offsetInCU: 0x1B466, offset: 0x1B466, size: 0x8, addend: 0x0, symName: __ZNSt3__16vectorIdNS_9allocatorIdEEE5clearB8ue170006Ev, symObjAddr: 0xECF0, symBinAddr: 0x100012F14, symSize: 0x44 }
  - { offsetInCU: 0x1B4B9, offset: 0x1B4B9, size: 0x8, addend: 0x0, symName: __ZNKSt3__113basic_ostreamIcNS_11char_traitsIcEEE6sentrycvbB8ue170006Ev, symObjAddr: 0xEFC8, symBinAddr: 0x1000131EC, symSize: 0x1C }
  - { offsetInCU: 0x1B4DF, offset: 0x1B4DF, size: 0x8, addend: 0x0, symName: __ZNSt3__119ostreambuf_iteratorIcNS_11char_traitsIcEEEC1B8ue170006ERNS_13basic_ostreamIcS2_EE, symObjAddr: 0xF224, symBinAddr: 0x100013448, symSize: 0x34 }
  - { offsetInCU: 0x1B517, offset: 0x1B517, size: 0x8, addend: 0x0, symName: __ZNKSt3__18ios_base5flagsB8ue170006Ev, symObjAddr: 0xF258, symBinAddr: 0x10001347C, symSize: 0x18 }
  - { offsetInCU: 0x1B53F, offset: 0x1B53F, size: 0x8, addend: 0x0, symName: __ZNKSt3__19basic_iosIcNS_11char_traitsIcEEE4fillB8ue170006Ev, symObjAddr: 0xF270, symBinAddr: 0x100013494, symSize: 0x64 }
  - { offsetInCU: 0x1B567, offset: 0x1B567, size: 0x8, addend: 0x0, symName: __ZNKSt3__119ostreambuf_iteratorIcNS_11char_traitsIcEEE6failedB8ue170006Ev, symObjAddr: 0xF2D4, symBinAddr: 0x1000134F8, symSize: 0x24 }
  - { offsetInCU: 0x1B58D, offset: 0x1B58D, size: 0x8, addend: 0x0, symName: __ZNSt3__19basic_iosIcNS_11char_traitsIcEEE8setstateB8ue170006Ej, symObjAddr: 0xF2F8, symBinAddr: 0x10001351C, symSize: 0x2C }
  - { offsetInCU: 0x1B5C2, offset: 0x1B5C2, size: 0x8, addend: 0x0, symName: __ZNKSt3__18ios_base5widthB8ue170006Ev, symObjAddr: 0xF324, symBinAddr: 0x100013548, symSize: 0x18 }
  - { offsetInCU: 0x1B5EA, offset: 0x1B5EA, size: 0x8, addend: 0x0, symName: __ZNSt3__115basic_streambufIcNS_11char_traitsIcEEE5sputnB8ue170006EPKcl, symObjAddr: 0xF33C, symBinAddr: 0x100013560, symSize: 0x3C }
  - { offsetInCU: 0x1B62C, offset: 0x1B62C, size: 0x8, addend: 0x0, symName: __ZNSt3__112basic_stringIcNS_11char_traitsIcEENS_9allocatorIcEEEC1B8ue170006Emc, symObjAddr: 0xF378, symBinAddr: 0x10001359C, symSize: 0x3C }
  - { offsetInCU: 0x1B674, offset: 0x1B674, size: 0x8, addend: 0x0, symName: __ZNSt3__18ios_base5widthB8ue170006El, symObjAddr: 0xF3B4, symBinAddr: 0x1000135D8, symSize: 0x2C }
  - { offsetInCU: 0x1B6BA, offset: 0x1B6BA, size: 0x8, addend: 0x0, symName: __ZNSt3__112basic_stringIcNS_11char_traitsIcEENS_9allocatorIcEEEC2B8ue170006Emc, symObjAddr: 0xF3E0, symBinAddr: 0x100013604, symSize: 0x4C }
  - { offsetInCU: 0x1B702, offset: 0x1B702, size: 0x8, addend: 0x0, symName: __ZNSt3__119ostreambuf_iteratorIcNS_11char_traitsIcEEEC2B8ue170006ERNS_13basic_ostreamIcS2_EE, symObjAddr: 0xF42C, symBinAddr: 0x100013650, symSize: 0x54 }
  - { offsetInCU: 0x1B73A, offset: 0x1B73A, size: 0x8, addend: 0x0, symName: __ZNKSt3__19basic_iosIcNS_11char_traitsIcEEE5rdbufB8ue170006Ev, symObjAddr: 0xF480, symBinAddr: 0x1000136A4, symSize: 0x24 }
  - { offsetInCU: 0x1B762, offset: 0x1B762, size: 0x8, addend: 0x0, symName: __ZNKSt3__18ios_base5rdbufB8ue170006Ev, symObjAddr: 0xF4A4, symBinAddr: 0x1000136C8, symSize: 0x18 }
  - { offsetInCU: 0x1B788, offset: 0x1B788, size: 0x8, addend: 0x0, symName: __ZNSt3__111char_traitsIcE11eq_int_typeB8ue170006Eii, symObjAddr: 0xF4BC, symBinAddr: 0x1000136E0, symSize: 0x28 }
  - { offsetInCU: 0x1B7BB, offset: 0x1B7BB, size: 0x8, addend: 0x0, symName: __ZNSt3__111char_traitsIcE3eofB8ue170006Ev, symObjAddr: 0xF4E4, symBinAddr: 0x100013708, symSize: 0x8 }
  - { offsetInCU: 0x1B7CF, offset: 0x1B7CF, size: 0x8, addend: 0x0, symName: __ZNKSt3__19basic_iosIcNS_11char_traitsIcEEE5widenB8ue170006Ec, symObjAddr: 0xF4EC, symBinAddr: 0x100013710, symSize: 0x84 }
  - { offsetInCU: 0x1B838, offset: 0x1B838, size: 0x8, addend: 0x0, symName: __ZNKSt3__15ctypeIcE5widenB8ue170006Ec, symObjAddr: 0xF59C, symBinAddr: 0x1000137C0, symSize: 0x38 }
  - { offsetInCU: 0x1B86D, offset: 0x1B86D, size: 0x8, addend: 0x0, symName: __ZNSt3__18ios_base8setstateB8ue170006Ej, symObjAddr: 0xF5D4, symBinAddr: 0x1000137F8, symSize: 0x34 }
  - { offsetInCU: 0x1B8A4, offset: 0x1B8A4, size: 0x8, addend: 0x0, symName: __ZNSt3__16vectorIdNS_9allocatorIdEEEC2Em, symObjAddr: 0xF608, symBinAddr: 0x10001382C, symSize: 0xD4 }
  - { offsetInCU: 0x1B8F4, offset: 0x1B8F4, size: 0x8, addend: 0x0, symName: __ZNSt3__16vectorIdNS_9allocatorIdEEE18__construct_at_endEm, symObjAddr: 0xF6DC, symBinAddr: 0x100013900, symSize: 0xC8 }
  - { offsetInCU: 0x1B966, offset: 0x1B966, size: 0x8, addend: 0x0, symName: __ZNSt3__116allocator_traitsINS_9allocatorIdEEE9constructB8ue170006IdJEvEEvRS2_PT_DpOT0_, symObjAddr: 0xF7A4, symBinAddr: 0x1000139C8, symSize: 0x2C }
  - { offsetInCU: 0x1B9A8, offset: 0x1B9A8, size: 0x8, addend: 0x0, symName: __ZNSt3__19allocatorIdE9constructB8ue170006IdJEEEvPT_DpOT0_, symObjAddr: 0xF7D0, symBinAddr: 0x1000139F4, symSize: 0x20 }
  - { offsetInCU: 0x1B9EA, offset: 0x1B9EA, size: 0x8, addend: 0x0, symName: __ZNSt3__16vectorIdNS_9allocatorIdEEEC2EmRKd, symObjAddr: 0xF7F0, symBinAddr: 0x100013A14, symSize: 0xDC }
  - { offsetInCU: 0x1BA49, offset: 0x1BA49, size: 0x8, addend: 0x0, symName: __ZNSt3__16vectorIdNS_9allocatorIdEEE18__construct_at_endEmRKd, symObjAddr: 0xF8CC, symBinAddr: 0x100013AF0, symSize: 0xD0 }
  - { offsetInCU: 0x1BACA, offset: 0x1BACA, size: 0x8, addend: 0x0, symName: __ZNSt3__116allocator_traitsINS_9allocatorIdEEE9constructB8ue170006IdJRKdEvEEvRS2_PT_DpOT0_, symObjAddr: 0xF99C, symBinAddr: 0x100013BC0, symSize: 0x34 }
  - { offsetInCU: 0x1BB21, offset: 0x1BB21, size: 0x8, addend: 0x0, symName: __ZNSt3__19allocatorIdE9constructB8ue170006IdJRKdEEEvPT_DpOT0_, symObjAddr: 0xF9D0, symBinAddr: 0x100013BF4, symSize: 0x28 }
  - { offsetInCU: 0x1BB77, offset: 0x1BB77, size: 0x8, addend: 0x0, symName: __ZNSt3__16vectorINS0_IdNS_9allocatorIdEEEENS1_IS3_EEEC2EmRKS3_, symObjAddr: 0xF9F8, symBinAddr: 0x100013C1C, symSize: 0xDC }
  - { offsetInCU: 0x1BBD6, offset: 0x1BBD6, size: 0x8, addend: 0x0, symName: __ZNSt3__117__compressed_pairIPNS_6vectorIdNS_9allocatorIdEEEENS2_IS4_EEEC1B8ue170006IDnNS_18__default_init_tagEEEOT_OT0_, symObjAddr: 0xFAD4, symBinAddr: 0x100013CF8, symSize: 0x3C }
  - { offsetInCU: 0x1BC2E, offset: 0x1BC2E, size: 0x8, addend: 0x0, symName: __ZNSt3__16vectorINS0_IdNS_9allocatorIdEEEENS1_IS3_EEE16__destroy_vectorC1B8ue170006ERS5_, symObjAddr: 0xFB50, symBinAddr: 0x100013D74, symSize: 0x34 }
  - { offsetInCU: 0x1BC67, offset: 0x1BC67, size: 0x8, addend: 0x0, symName: __ZNSt3__16vectorINS0_IdNS_9allocatorIdEEEENS1_IS3_EEE11__vallocateB8ue170006Em, symObjAddr: 0xFB84, symBinAddr: 0x100013DA8, symSize: 0xB4 }
  - { offsetInCU: 0x1BCAB, offset: 0x1BCAB, size: 0x8, addend: 0x0, symName: __ZNSt3__16vectorINS0_IdNS_9allocatorIdEEEENS1_IS3_EEE18__construct_at_endEmRKS3_, symObjAddr: 0xFC38, symBinAddr: 0x100013E5C, symSize: 0xD0 }
  - { offsetInCU: 0x1BD2C, offset: 0x1BD2C, size: 0x8, addend: 0x0, symName: __ZNSt3__128__exception_guard_exceptionsINS_6vectorINS1_IdNS_9allocatorIdEEEENS2_IS4_EEE16__destroy_vectorEE10__completeB8ue170006Ev, symObjAddr: 0xFD08, symBinAddr: 0x100013F2C, symSize: 0x1C }
  - { offsetInCU: 0x1BD52, offset: 0x1BD52, size: 0x8, addend: 0x0, symName: __ZNSt3__128__exception_guard_exceptionsINS_6vectorINS1_IdNS_9allocatorIdEEEENS2_IS4_EEE16__destroy_vectorEED1B8ue170006Ev, symObjAddr: 0xFD24, symBinAddr: 0x100013F48, symSize: 0x2C }
  - { offsetInCU: 0x1BD7C, offset: 0x1BD7C, size: 0x8, addend: 0x0, symName: __ZNSt3__117__compressed_pairIPNS_6vectorIdNS_9allocatorIdEEEENS2_IS4_EEEC2B8ue170006IDnNS_18__default_init_tagEEEOT_OT0_, symObjAddr: 0xFD50, symBinAddr: 0x100013F74, symSize: 0x40 }
  - { offsetInCU: 0x1BDD4, offset: 0x1BDD4, size: 0x8, addend: 0x0, symName: __ZNSt3__122__compressed_pair_elemIPNS_6vectorIdNS_9allocatorIdEEEELi0ELb0EEC2B8ue170006IDnvEEOT_, symObjAddr: 0xFD90, symBinAddr: 0x100013FB4, symSize: 0x1C }
  - { offsetInCU: 0x1BE16, offset: 0x1BE16, size: 0x8, addend: 0x0, symName: __ZNSt3__122__compressed_pair_elemINS_9allocatorINS_6vectorIdNS1_IdEEEEEELi1ELb1EEC2B8ue170006ENS_18__default_init_tagE, symObjAddr: 0xFDAC, symBinAddr: 0x100013FD0, symSize: 0x2C }
  - { offsetInCU: 0x1BE4A, offset: 0x1BE4A, size: 0x8, addend: 0x0, symName: __ZNSt3__19allocatorINS_6vectorIdNS0_IdEEEEEC2B8ue170006Ev, symObjAddr: 0xFDD8, symBinAddr: 0x100013FFC, symSize: 0x2C }
  - { offsetInCU: 0x1BE74, offset: 0x1BE74, size: 0x8, addend: 0x0, symName: __ZNSt3__116__non_trivial_ifILb1ENS_9allocatorINS_6vectorIdNS1_IdEEEEEEEC2B8ue170006Ev, symObjAddr: 0xFE04, symBinAddr: 0x100014028, symSize: 0x14 }
  - { offsetInCU: 0x1BE9E, offset: 0x1BE9E, size: 0x8, addend: 0x0, symName: __ZNSt3__128__exception_guard_exceptionsINS_6vectorINS1_IdNS_9allocatorIdEEEENS2_IS4_EEE16__destroy_vectorEEC1B8ue170006ES7_, symObjAddr: 0xFE18, symBinAddr: 0x10001403C, symSize: 0x34 }
  - { offsetInCU: 0x1BED6, offset: 0x1BED6, size: 0x8, addend: 0x0, symName: __ZNSt3__128__exception_guard_exceptionsINS_6vectorINS1_IdNS_9allocatorIdEEEENS2_IS4_EEE16__destroy_vectorEEC2B8ue170006ES7_, symObjAddr: 0xFE4C, symBinAddr: 0x100014070, symSize: 0x24 }
  - { offsetInCU: 0x1BF0E, offset: 0x1BF0E, size: 0x8, addend: 0x0, symName: __ZNSt3__16vectorINS0_IdNS_9allocatorIdEEEENS1_IS3_EEE16__destroy_vectorC2B8ue170006ERS5_, symObjAddr: 0xFE70, symBinAddr: 0x100014094, symSize: 0x20 }
  - { offsetInCU: 0x1BF47, offset: 0x1BF47, size: 0x8, addend: 0x0, symName: __ZNKSt3__16vectorINS0_IdNS_9allocatorIdEEEENS1_IS3_EEE8max_sizeEv, symObjAddr: 0xFE90, symBinAddr: 0x1000140B4, symSize: 0x60 }
  - { offsetInCU: 0x1BF6F, offset: 0x1BF6F, size: 0x8, addend: 0x0, symName: __ZNKSt3__16vectorINS0_IdNS_9allocatorIdEEEENS1_IS3_EEE20__throw_length_errorB8ue170006Ev, symObjAddr: 0xFEF0, symBinAddr: 0x100014114, symSize: 0x1C }
  - { offsetInCU: 0x1BF95, offset: 0x1BF95, size: 0x8, addend: 0x0, symName: __ZNSt3__16vectorINS0_IdNS_9allocatorIdEEEENS1_IS3_EEE7__allocB8ue170006Ev, symObjAddr: 0xFF4C, symBinAddr: 0x100014170, symSize: 0x28 }
  - { offsetInCU: 0x1BFBB, offset: 0x1BFBB, size: 0x8, addend: 0x0, symName: __ZNSt3__16vectorINS0_IdNS_9allocatorIdEEEENS1_IS3_EEE9__end_capB8ue170006Ev, symObjAddr: 0xFF74, symBinAddr: 0x100014198, symSize: 0x28 }
  - { offsetInCU: 0x1BFE1, offset: 0x1BFE1, size: 0x8, addend: 0x0, symName: __ZNKSt3__16vectorINS0_IdNS_9allocatorIdEEEENS1_IS3_EEE14__annotate_newB8ue170006Em, symObjAddr: 0xFF9C, symBinAddr: 0x1000141C0, symSize: 0xC8 }
  - { offsetInCU: 0x1C020, offset: 0x1C020, size: 0x8, addend: 0x0, symName: __ZNSt3__116allocator_traitsINS_9allocatorINS_6vectorIdNS1_IdEEEEEEE8max_sizeB8ue170006IS5_vEEmRKS5_, symObjAddr: 0x10064, symBinAddr: 0x100014288, symSize: 0x24 }
  - { offsetInCU: 0x1C04E, offset: 0x1C04E, size: 0x8, addend: 0x0, symName: __ZNKSt3__16vectorINS0_IdNS_9allocatorIdEEEENS1_IS3_EEE7__allocB8ue170006Ev, symObjAddr: 0x10088, symBinAddr: 0x1000142AC, symSize: 0x28 }
  - { offsetInCU: 0x1C074, offset: 0x1C074, size: 0x8, addend: 0x0, symName: __ZNKSt3__19allocatorINS_6vectorIdNS0_IdEEEEE8max_sizeB8ue170006Ev, symObjAddr: 0x100B0, symBinAddr: 0x1000142D4, symSize: 0x18 }
  - { offsetInCU: 0x1C09A, offset: 0x1C09A, size: 0x8, addend: 0x0, symName: __ZNKSt3__117__compressed_pairIPNS_6vectorIdNS_9allocatorIdEEEENS2_IS4_EEE6secondB8ue170006Ev, symObjAddr: 0x100C8, symBinAddr: 0x1000142EC, symSize: 0x24 }
  - { offsetInCU: 0x1C0C0, offset: 0x1C0C0, size: 0x8, addend: 0x0, symName: __ZNKSt3__122__compressed_pair_elemINS_9allocatorINS_6vectorIdNS1_IdEEEEEELi1ELb1EE5__getB8ue170006Ev, symObjAddr: 0x100EC, symBinAddr: 0x100014310, symSize: 0x14 }
  - { offsetInCU: 0x1C0E6, offset: 0x1C0E6, size: 0x8, addend: 0x0, symName: __ZNSt3__19allocatorINS_6vectorIdNS0_IdEEEEE8allocateB8ue170006Em, symObjAddr: 0x10100, symBinAddr: 0x100014324, symSize: 0x5C }
  - { offsetInCU: 0x1C11A, offset: 0x1C11A, size: 0x8, addend: 0x0, symName: __ZNSt3__117__compressed_pairIPNS_6vectorIdNS_9allocatorIdEEEENS2_IS4_EEE6secondB8ue170006Ev, symObjAddr: 0x1015C, symBinAddr: 0x100014380, symSize: 0x24 }
  - { offsetInCU: 0x1C140, offset: 0x1C140, size: 0x8, addend: 0x0, symName: __ZNSt3__122__compressed_pair_elemINS_9allocatorINS_6vectorIdNS1_IdEEEEEELi1ELb1EE5__getB8ue170006Ev, symObjAddr: 0x10180, symBinAddr: 0x1000143A4, symSize: 0x14 }
  - { offsetInCU: 0x1C166, offset: 0x1C166, size: 0x8, addend: 0x0, symName: __ZNSt3__117__compressed_pairIPNS_6vectorIdNS_9allocatorIdEEEENS2_IS4_EEE5firstB8ue170006Ev, symObjAddr: 0x10194, symBinAddr: 0x1000143B8, symSize: 0x24 }
  - { offsetInCU: 0x1C18C, offset: 0x1C18C, size: 0x8, addend: 0x0, symName: __ZNSt3__122__compressed_pair_elemIPNS_6vectorIdNS_9allocatorIdEEEELi0ELb0EE5__getB8ue170006Ev, symObjAddr: 0x101B8, symBinAddr: 0x1000143DC, symSize: 0x14 }
  - { offsetInCU: 0x1C1B2, offset: 0x1C1B2, size: 0x8, addend: 0x0, symName: __ZNKSt3__16vectorINS0_IdNS_9allocatorIdEEEENS1_IS3_EEE31__annotate_contiguous_containerB8ue170006EPKvS7_S7_S7_, symObjAddr: 0x101CC, symBinAddr: 0x1000143F0, symSize: 0x20 }
  - { offsetInCU: 0x1C204, offset: 0x1C204, size: 0x8, addend: 0x0, symName: __ZNKSt3__16vectorINS0_IdNS_9allocatorIdEEEENS1_IS3_EEE4dataB8ue170006Ev, symObjAddr: 0x101EC, symBinAddr: 0x100014410, symSize: 0x28 }
  - { offsetInCU: 0x1C22A, offset: 0x1C22A, size: 0x8, addend: 0x0, symName: __ZNKSt3__16vectorINS0_IdNS_9allocatorIdEEEENS1_IS3_EEE8capacityB8ue170006Ev, symObjAddr: 0x10214, symBinAddr: 0x100014438, symSize: 0x40 }
  - { offsetInCU: 0x1C250, offset: 0x1C250, size: 0x8, addend: 0x0, symName: __ZNKSt3__16vectorINS0_IdNS_9allocatorIdEEEENS1_IS3_EEE9__end_capB8ue170006Ev, symObjAddr: 0x10268, symBinAddr: 0x10001448C, symSize: 0x28 }
  - { offsetInCU: 0x1C276, offset: 0x1C276, size: 0x8, addend: 0x0, symName: __ZNKSt3__117__compressed_pairIPNS_6vectorIdNS_9allocatorIdEEEENS2_IS4_EEE5firstB8ue170006Ev, symObjAddr: 0x10290, symBinAddr: 0x1000144B4, symSize: 0x24 }
  - { offsetInCU: 0x1C29C, offset: 0x1C29C, size: 0x8, addend: 0x0, symName: __ZNKSt3__122__compressed_pair_elemIPNS_6vectorIdNS_9allocatorIdEEEELi0ELb0EE5__getB8ue170006Ev, symObjAddr: 0x102B4, symBinAddr: 0x1000144D8, symSize: 0x14 }
  - { offsetInCU: 0x1C2DB, offset: 0x1C2DB, size: 0x8, addend: 0x0, symName: __ZNSt3__16vectorINS0_IdNS_9allocatorIdEEEENS1_IS3_EEE21_ConstructTransactionC1B8ue170006ERS5_m, symObjAddr: 0x102C8, symBinAddr: 0x1000144EC, symSize: 0x3C }
  - { offsetInCU: 0x1C323, offset: 0x1C323, size: 0x8, addend: 0x0, symName: __ZNSt3__116allocator_traitsINS_9allocatorINS_6vectorIdNS1_IdEEEEEEE9constructB8ue170006IS4_JRKS4_EvEEvRS5_PT_DpOT0_, symObjAddr: 0x10304, symBinAddr: 0x100014528, symSize: 0x34 }
  - { offsetInCU: 0x1C37A, offset: 0x1C37A, size: 0x8, addend: 0x0, symName: __ZNSt3__16vectorINS0_IdNS_9allocatorIdEEEENS1_IS3_EEE21_ConstructTransactionD1B8ue170006Ev, symObjAddr: 0x10338, symBinAddr: 0x10001455C, symSize: 0x2C }
  - { offsetInCU: 0x1C3A4, offset: 0x1C3A4, size: 0x8, addend: 0x0, symName: __ZNSt3__16vectorINS0_IdNS_9allocatorIdEEEENS1_IS3_EEE21_ConstructTransactionC2B8ue170006ERS5_m, symObjAddr: 0x10364, symBinAddr: 0x100014588, symSize: 0x4C }
  - { offsetInCU: 0x1C3EC, offset: 0x1C3EC, size: 0x8, addend: 0x0, symName: __ZNSt3__19allocatorINS_6vectorIdNS0_IdEEEEE9constructB8ue170006IS3_JRKS3_EEEvPT_DpOT0_, symObjAddr: 0x103B0, symBinAddr: 0x1000145D4, symSize: 0x30 }
  - { offsetInCU: 0x1C442, offset: 0x1C442, size: 0x8, addend: 0x0, symName: __ZNSt3__16vectorINS0_IdNS_9allocatorIdEEEENS1_IS3_EEE21_ConstructTransactionD2B8ue170006Ev, symObjAddr: 0x103E0, symBinAddr: 0x100014604, symSize: 0x20 }
  - { offsetInCU: 0x1C46C, offset: 0x1C46C, size: 0x8, addend: 0x0, symName: __ZNSt3__128__exception_guard_exceptionsINS_6vectorINS1_IdNS_9allocatorIdEEEENS2_IS4_EEE16__destroy_vectorEED2B8ue170006Ev, symObjAddr: 0x10400, symBinAddr: 0x100014624, symSize: 0x50 }
  - { offsetInCU: 0x1C496, offset: 0x1C496, size: 0x8, addend: 0x0, symName: __ZNSt3__16vectorINS0_IdNS_9allocatorIdEEEENS1_IS3_EEE16__destroy_vectorclB8ue170006Ev, symObjAddr: 0x10450, symBinAddr: 0x100014674, symSize: 0x90 }
  - { offsetInCU: 0x1C4BC, offset: 0x1C4BC, size: 0x8, addend: 0x0, symName: __ZNSt3__16vectorINS0_IdNS_9allocatorIdEEEENS1_IS3_EEE7__clearB8ue170006Ev, symObjAddr: 0x104E0, symBinAddr: 0x100014704, symSize: 0x28 }
  - { offsetInCU: 0x1C4E2, offset: 0x1C4E2, size: 0x8, addend: 0x0, symName: __ZNKSt3__16vectorINS0_IdNS_9allocatorIdEEEENS1_IS3_EEE17__annotate_deleteB8ue170006Ev, symObjAddr: 0x10508, symBinAddr: 0x10001472C, symSize: 0xD4 }
  - { offsetInCU: 0x1C508, offset: 0x1C508, size: 0x8, addend: 0x0, symName: __ZNSt3__116allocator_traitsINS_9allocatorINS_6vectorIdNS1_IdEEEEEEE10deallocateB8ue170006ERS5_PS4_m, symObjAddr: 0x105DC, symBinAddr: 0x100014800, symSize: 0x34 }
  - { offsetInCU: 0x1C54A, offset: 0x1C54A, size: 0x8, addend: 0x0, symName: __ZNSt3__16vectorINS0_IdNS_9allocatorIdEEEENS1_IS3_EEE22__base_destruct_at_endB8ue170006EPS3_, symObjAddr: 0x10610, symBinAddr: 0x100014834, symSize: 0x8C }
  - { offsetInCU: 0x1C58E, offset: 0x1C58E, size: 0x8, addend: 0x0, symName: __ZNSt3__116allocator_traitsINS_9allocatorINS_6vectorIdNS1_IdEEEEEEE7destroyB8ue170006IS4_vEEvRS5_PT_, symObjAddr: 0x1069C, symBinAddr: 0x1000148C0, symSize: 0x2C }
  - { offsetInCU: 0x1C5CB, offset: 0x1C5CB, size: 0x8, addend: 0x0, symName: __ZNSt3__19allocatorINS_6vectorIdNS0_IdEEEEE7destroyB8ue170006EPS3_, symObjAddr: 0x106C8, symBinAddr: 0x1000148EC, symSize: 0x28 }
  - { offsetInCU: 0x1C5FF, offset: 0x1C5FF, size: 0x8, addend: 0x0, symName: __ZNKSt3__16vectorINS0_IdNS_9allocatorIdEEEENS1_IS3_EEE4sizeB8ue170006Ev, symObjAddr: 0x106F0, symBinAddr: 0x100014914, symSize: 0x28 }
  - { offsetInCU: 0x1C625, offset: 0x1C625, size: 0x8, addend: 0x0, symName: __ZNSt3__19allocatorINS_6vectorIdNS0_IdEEEEE10deallocateB8ue170006EPS3_m, symObjAddr: 0x10718, symBinAddr: 0x10001493C, symSize: 0x44 }
  - { offsetInCU: 0x1C667, offset: 0x1C667, size: 0x8, addend: 0x0, symName: __ZNSt3__16vectorINS0_IdNS_9allocatorIdEEEENS1_IS3_EEED2B8ue170006Ev, symObjAddr: 0x1075C, symBinAddr: 0x100014980, symSize: 0x40 }
  - { offsetInCU: 0x1C691, offset: 0x1C691, size: 0x8, addend: 0x0, symName: __ZNSt3__16vectorIiNS_9allocatorIiEEEC2EmRKi, symObjAddr: 0x1079C, symBinAddr: 0x1000149C0, symSize: 0xDC }
  - { offsetInCU: 0x1C6F0, offset: 0x1C6F0, size: 0x8, addend: 0x0, symName: __ZNSt3__117__compressed_pairIPiNS_9allocatorIiEEEC1B8ue170006IDnNS_18__default_init_tagEEEOT_OT0_, symObjAddr: 0x10878, symBinAddr: 0x100014A9C, symSize: 0x3C }
  - { offsetInCU: 0x1C748, offset: 0x1C748, size: 0x8, addend: 0x0, symName: __ZNSt3__16vectorIiNS_9allocatorIiEEE16__destroy_vectorC1B8ue170006ERS3_, symObjAddr: 0x108F4, symBinAddr: 0x100014B18, symSize: 0x34 }
  - { offsetInCU: 0x1C781, offset: 0x1C781, size: 0x8, addend: 0x0, symName: __ZNSt3__16vectorIiNS_9allocatorIiEEE11__vallocateB8ue170006Em, symObjAddr: 0x10928, symBinAddr: 0x100014B4C, symSize: 0xAC }
  - { offsetInCU: 0x1C7C5, offset: 0x1C7C5, size: 0x8, addend: 0x0, symName: __ZNSt3__16vectorIiNS_9allocatorIiEEE18__construct_at_endEmRKi, symObjAddr: 0x109D4, symBinAddr: 0x100014BF8, symSize: 0xD0 }
  - { offsetInCU: 0x1C846, offset: 0x1C846, size: 0x8, addend: 0x0, symName: __ZNSt3__128__exception_guard_exceptionsINS_6vectorIiNS_9allocatorIiEEE16__destroy_vectorEE10__completeB8ue170006Ev, symObjAddr: 0x10AA4, symBinAddr: 0x100014CC8, symSize: 0x1C }
  - { offsetInCU: 0x1C86C, offset: 0x1C86C, size: 0x8, addend: 0x0, symName: __ZNSt3__128__exception_guard_exceptionsINS_6vectorIiNS_9allocatorIiEEE16__destroy_vectorEED1B8ue170006Ev, symObjAddr: 0x10AC0, symBinAddr: 0x100014CE4, symSize: 0x2C }
  - { offsetInCU: 0x1C896, offset: 0x1C896, size: 0x8, addend: 0x0, symName: __ZNSt3__117__compressed_pairIPiNS_9allocatorIiEEEC2B8ue170006IDnNS_18__default_init_tagEEEOT_OT0_, symObjAddr: 0x10AEC, symBinAddr: 0x100014D10, symSize: 0x40 }
  - { offsetInCU: 0x1C8EE, offset: 0x1C8EE, size: 0x8, addend: 0x0, symName: __ZNSt3__122__compressed_pair_elemIPiLi0ELb0EEC2B8ue170006IDnvEEOT_, symObjAddr: 0x10B2C, symBinAddr: 0x100014D50, symSize: 0x1C }
  - { offsetInCU: 0x1C930, offset: 0x1C930, size: 0x8, addend: 0x0, symName: __ZNSt3__122__compressed_pair_elemINS_9allocatorIiEELi1ELb1EEC2B8ue170006ENS_18__default_init_tagE, symObjAddr: 0x10B48, symBinAddr: 0x100014D6C, symSize: 0x2C }
  - { offsetInCU: 0x1C964, offset: 0x1C964, size: 0x8, addend: 0x0, symName: __ZNSt3__19allocatorIiEC2B8ue170006Ev, symObjAddr: 0x10B74, symBinAddr: 0x100014D98, symSize: 0x2C }
  - { offsetInCU: 0x1C98E, offset: 0x1C98E, size: 0x8, addend: 0x0, symName: __ZNSt3__116__non_trivial_ifILb1ENS_9allocatorIiEEEC2B8ue170006Ev, symObjAddr: 0x10BA0, symBinAddr: 0x100014DC4, symSize: 0x14 }
  - { offsetInCU: 0x1C9B8, offset: 0x1C9B8, size: 0x8, addend: 0x0, symName: __ZNSt3__128__exception_guard_exceptionsINS_6vectorIiNS_9allocatorIiEEE16__destroy_vectorEEC1B8ue170006ES5_, symObjAddr: 0x10BB4, symBinAddr: 0x100014DD8, symSize: 0x34 }
  - { offsetInCU: 0x1C9F0, offset: 0x1C9F0, size: 0x8, addend: 0x0, symName: __ZNSt3__128__exception_guard_exceptionsINS_6vectorIiNS_9allocatorIiEEE16__destroy_vectorEEC2B8ue170006ES5_, symObjAddr: 0x10BE8, symBinAddr: 0x100014E0C, symSize: 0x24 }
  - { offsetInCU: 0x1CA28, offset: 0x1CA28, size: 0x8, addend: 0x0, symName: __ZNSt3__16vectorIiNS_9allocatorIiEEE16__destroy_vectorC2B8ue170006ERS3_, symObjAddr: 0x10C0C, symBinAddr: 0x100014E30, symSize: 0x20 }
  - { offsetInCU: 0x1CA61, offset: 0x1CA61, size: 0x8, addend: 0x0, symName: __ZNKSt3__16vectorIiNS_9allocatorIiEEE8max_sizeEv, symObjAddr: 0x10C2C, symBinAddr: 0x100014E50, symSize: 0x60 }
  - { offsetInCU: 0x1CA89, offset: 0x1CA89, size: 0x8, addend: 0x0, symName: __ZNKSt3__16vectorIiNS_9allocatorIiEEE20__throw_length_errorB8ue170006Ev, symObjAddr: 0x10C8C, symBinAddr: 0x100014EB0, symSize: 0x1C }
  - { offsetInCU: 0x1CAAF, offset: 0x1CAAF, size: 0x8, addend: 0x0, symName: __ZNSt3__16vectorIiNS_9allocatorIiEEE7__allocB8ue170006Ev, symObjAddr: 0x10CE8, symBinAddr: 0x100014F0C, symSize: 0x28 }
  - { offsetInCU: 0x1CAD5, offset: 0x1CAD5, size: 0x8, addend: 0x0, symName: __ZNSt3__16vectorIiNS_9allocatorIiEEE9__end_capB8ue170006Ev, symObjAddr: 0x10D10, symBinAddr: 0x100014F34, symSize: 0x28 }
  - { offsetInCU: 0x1CAFB, offset: 0x1CAFB, size: 0x8, addend: 0x0, symName: __ZNKSt3__16vectorIiNS_9allocatorIiEEE14__annotate_newB8ue170006Em, symObjAddr: 0x10D38, symBinAddr: 0x100014F5C, symSize: 0xAC }
  - { offsetInCU: 0x1CB3A, offset: 0x1CB3A, size: 0x8, addend: 0x0, symName: __ZNSt3__116allocator_traitsINS_9allocatorIiEEE8max_sizeB8ue170006IS2_vEEmRKS2_, symObjAddr: 0x10DE4, symBinAddr: 0x100015008, symSize: 0x24 }
  - { offsetInCU: 0x1CB68, offset: 0x1CB68, size: 0x8, addend: 0x0, symName: __ZNKSt3__16vectorIiNS_9allocatorIiEEE7__allocB8ue170006Ev, symObjAddr: 0x10E08, symBinAddr: 0x10001502C, symSize: 0x28 }
  - { offsetInCU: 0x1CB8E, offset: 0x1CB8E, size: 0x8, addend: 0x0, symName: __ZNKSt3__19allocatorIiE8max_sizeB8ue170006Ev, symObjAddr: 0x10E30, symBinAddr: 0x100015054, symSize: 0x14 }
  - { offsetInCU: 0x1CBB4, offset: 0x1CBB4, size: 0x8, addend: 0x0, symName: __ZNKSt3__117__compressed_pairIPiNS_9allocatorIiEEE6secondB8ue170006Ev, symObjAddr: 0x10E44, symBinAddr: 0x100015068, symSize: 0x24 }
  - { offsetInCU: 0x1CBDA, offset: 0x1CBDA, size: 0x8, addend: 0x0, symName: __ZNKSt3__122__compressed_pair_elemINS_9allocatorIiEELi1ELb1EE5__getB8ue170006Ev, symObjAddr: 0x10E68, symBinAddr: 0x10001508C, symSize: 0x14 }
  - { offsetInCU: 0x1CC00, offset: 0x1CC00, size: 0x8, addend: 0x0, symName: __ZNSt3__19allocatorIiE8allocateB8ue170006Em, symObjAddr: 0x10E7C, symBinAddr: 0x1000150A0, symSize: 0x58 }
  - { offsetInCU: 0x1CC34, offset: 0x1CC34, size: 0x8, addend: 0x0, symName: __ZNSt3__117__compressed_pairIPiNS_9allocatorIiEEE6secondB8ue170006Ev, symObjAddr: 0x10ED4, symBinAddr: 0x1000150F8, symSize: 0x24 }
  - { offsetInCU: 0x1CC5A, offset: 0x1CC5A, size: 0x8, addend: 0x0, symName: __ZNSt3__122__compressed_pair_elemINS_9allocatorIiEELi1ELb1EE5__getB8ue170006Ev, symObjAddr: 0x10EF8, symBinAddr: 0x10001511C, symSize: 0x14 }
  - { offsetInCU: 0x1CC80, offset: 0x1CC80, size: 0x8, addend: 0x0, symName: __ZNSt3__117__compressed_pairIPiNS_9allocatorIiEEE5firstB8ue170006Ev, symObjAddr: 0x10F0C, symBinAddr: 0x100015130, symSize: 0x24 }
  - { offsetInCU: 0x1CCA6, offset: 0x1CCA6, size: 0x8, addend: 0x0, symName: __ZNSt3__122__compressed_pair_elemIPiLi0ELb0EE5__getB8ue170006Ev, symObjAddr: 0x10F30, symBinAddr: 0x100015154, symSize: 0x14 }
  - { offsetInCU: 0x1CCCC, offset: 0x1CCCC, size: 0x8, addend: 0x0, symName: __ZNKSt3__16vectorIiNS_9allocatorIiEEE31__annotate_contiguous_containerB8ue170006EPKvS5_S5_S5_, symObjAddr: 0x10F44, symBinAddr: 0x100015168, symSize: 0x20 }
  - { offsetInCU: 0x1CD1E, offset: 0x1CD1E, size: 0x8, addend: 0x0, symName: __ZNKSt3__16vectorIiNS_9allocatorIiEEE4dataB8ue170006Ev, symObjAddr: 0x10F64, symBinAddr: 0x100015188, symSize: 0x28 }
  - { offsetInCU: 0x1CD44, offset: 0x1CD44, size: 0x8, addend: 0x0, symName: __ZNKSt3__16vectorIiNS_9allocatorIiEEE8capacityB8ue170006Ev, symObjAddr: 0x10F8C, symBinAddr: 0x1000151B0, symSize: 0x40 }
  - { offsetInCU: 0x1CD6A, offset: 0x1CD6A, size: 0x8, addend: 0x0, symName: __ZNKSt3__16vectorIiNS_9allocatorIiEEE9__end_capB8ue170006Ev, symObjAddr: 0x10FE0, symBinAddr: 0x100015204, symSize: 0x28 }
  - { offsetInCU: 0x1CD90, offset: 0x1CD90, size: 0x8, addend: 0x0, symName: __ZNKSt3__117__compressed_pairIPiNS_9allocatorIiEEE5firstB8ue170006Ev, symObjAddr: 0x11008, symBinAddr: 0x10001522C, symSize: 0x24 }
  - { offsetInCU: 0x1CDB6, offset: 0x1CDB6, size: 0x8, addend: 0x0, symName: __ZNKSt3__122__compressed_pair_elemIPiLi0ELb0EE5__getB8ue170006Ev, symObjAddr: 0x1102C, symBinAddr: 0x100015250, symSize: 0x14 }
  - { offsetInCU: 0x1CDF5, offset: 0x1CDF5, size: 0x8, addend: 0x0, symName: __ZNSt3__16vectorIiNS_9allocatorIiEEE21_ConstructTransactionC1B8ue170006ERS3_m, symObjAddr: 0x11040, symBinAddr: 0x100015264, symSize: 0x3C }
  - { offsetInCU: 0x1CE3D, offset: 0x1CE3D, size: 0x8, addend: 0x0, symName: __ZNSt3__116allocator_traitsINS_9allocatorIiEEE9constructB8ue170006IiJRKiEvEEvRS2_PT_DpOT0_, symObjAddr: 0x1107C, symBinAddr: 0x1000152A0, symSize: 0x34 }
  - { offsetInCU: 0x1CE94, offset: 0x1CE94, size: 0x8, addend: 0x0, symName: __ZNSt3__16vectorIiNS_9allocatorIiEEE21_ConstructTransactionD1B8ue170006Ev, symObjAddr: 0x110B0, symBinAddr: 0x1000152D4, symSize: 0x2C }
  - { offsetInCU: 0x1CEBE, offset: 0x1CEBE, size: 0x8, addend: 0x0, symName: __ZNSt3__16vectorIiNS_9allocatorIiEEE21_ConstructTransactionC2B8ue170006ERS3_m, symObjAddr: 0x110DC, symBinAddr: 0x100015300, symSize: 0x44 }
  - { offsetInCU: 0x1CF06, offset: 0x1CF06, size: 0x8, addend: 0x0, symName: __ZNSt3__19allocatorIiE9constructB8ue170006IiJRKiEEEvPT_DpOT0_, symObjAddr: 0x11120, symBinAddr: 0x100015344, symSize: 0x28 }
  - { offsetInCU: 0x1CF5C, offset: 0x1CF5C, size: 0x8, addend: 0x0, symName: __ZNSt3__16vectorIiNS_9allocatorIiEEE21_ConstructTransactionD2B8ue170006Ev, symObjAddr: 0x11148, symBinAddr: 0x10001536C, symSize: 0x20 }
  - { offsetInCU: 0x1CF86, offset: 0x1CF86, size: 0x8, addend: 0x0, symName: __ZNSt3__128__exception_guard_exceptionsINS_6vectorIiNS_9allocatorIiEEE16__destroy_vectorEED2B8ue170006Ev, symObjAddr: 0x11168, symBinAddr: 0x10001538C, symSize: 0x50 }
  - { offsetInCU: 0x1CFB0, offset: 0x1CFB0, size: 0x8, addend: 0x0, symName: __ZNSt3__16vectorIiNS_9allocatorIiEEE16__destroy_vectorclB8ue170006Ev, symObjAddr: 0x111B8, symBinAddr: 0x1000153DC, symSize: 0x90 }
  - { offsetInCU: 0x1CFD6, offset: 0x1CFD6, size: 0x8, addend: 0x0, symName: __ZNSt3__16vectorIiNS_9allocatorIiEEE7__clearB8ue170006Ev, symObjAddr: 0x11248, symBinAddr: 0x10001546C, symSize: 0x28 }
  - { offsetInCU: 0x1CFFC, offset: 0x1CFFC, size: 0x8, addend: 0x0, symName: __ZNKSt3__16vectorIiNS_9allocatorIiEEE17__annotate_deleteB8ue170006Ev, symObjAddr: 0x11270, symBinAddr: 0x100015494, symSize: 0xB8 }
  - { offsetInCU: 0x1D022, offset: 0x1D022, size: 0x8, addend: 0x0, symName: __ZNSt3__116allocator_traitsINS_9allocatorIiEEE10deallocateB8ue170006ERS2_Pim, symObjAddr: 0x11328, symBinAddr: 0x10001554C, symSize: 0x34 }
  - { offsetInCU: 0x1D064, offset: 0x1D064, size: 0x8, addend: 0x0, symName: __ZNSt3__16vectorIiNS_9allocatorIiEEE22__base_destruct_at_endB8ue170006EPi, symObjAddr: 0x1135C, symBinAddr: 0x100015580, symSize: 0x8C }
  - { offsetInCU: 0x1D0A8, offset: 0x1D0A8, size: 0x8, addend: 0x0, symName: __ZNSt3__116allocator_traitsINS_9allocatorIiEEE7destroyB8ue170006IivEEvRS2_PT_, symObjAddr: 0x113E8, symBinAddr: 0x10001560C, symSize: 0x2C }
  - { offsetInCU: 0x1D0E5, offset: 0x1D0E5, size: 0x8, addend: 0x0, symName: __ZNSt3__19allocatorIiE7destroyB8ue170006EPi, symObjAddr: 0x11414, symBinAddr: 0x100015638, symSize: 0x14 }
  - { offsetInCU: 0x1D119, offset: 0x1D119, size: 0x8, addend: 0x0, symName: __ZNKSt3__16vectorIiNS_9allocatorIiEEE4sizeB8ue170006Ev, symObjAddr: 0x11428, symBinAddr: 0x10001564C, symSize: 0x28 }
  - { offsetInCU: 0x1D13F, offset: 0x1D13F, size: 0x8, addend: 0x0, symName: __ZNSt3__19allocatorIiE10deallocateB8ue170006EPim, symObjAddr: 0x11450, symBinAddr: 0x100015674, symSize: 0x40 }
  - { offsetInCU: 0x1D181, offset: 0x1D181, size: 0x8, addend: 0x0, symName: __ZNSt3__16vectorIiNS_9allocatorIiEEED2B8ue170006Ev, symObjAddr: 0x11490, symBinAddr: 0x1000156B4, symSize: 0x40 }
  - { offsetInCU: 0x1D1AB, offset: 0x1D1AB, size: 0x8, addend: 0x0, symName: __ZNSt3__16vectorIdNS_9allocatorIdEEE8__appendEm, symObjAddr: 0x114D0, symBinAddr: 0x1000156F4, symSize: 0x108 }
  - { offsetInCU: 0x1D206, offset: 0x1D206, size: 0x8, addend: 0x0, symName: __ZNSt3__114__split_bufferIdRNS_9allocatorIdEEEC1EmmS3_, symObjAddr: 0x115D8, symBinAddr: 0x1000157FC, symSize: 0x44 }
  - { offsetInCU: 0x1D25C, offset: 0x1D25C, size: 0x8, addend: 0x0, symName: __ZNSt3__114__split_bufferIdRNS_9allocatorIdEEE18__construct_at_endEm, symObjAddr: 0x1161C, symBinAddr: 0x100015840, symSize: 0xB4 }
  - { offsetInCU: 0x1D2A1, offset: 0x1D2A1, size: 0x8, addend: 0x0, symName: __ZNSt3__114__split_bufferIdRNS_9allocatorIdEEED1Ev, symObjAddr: 0x117E0, symBinAddr: 0x100015A04, symSize: 0x2C }
  - { offsetInCU: 0x1D2CD, offset: 0x1D2CD, size: 0x8, addend: 0x0, symName: __ZNSt3__114__split_bufferIdRNS_9allocatorIdEEEC2EmmS3_, symObjAddr: 0x1180C, symBinAddr: 0x100015A30, symSize: 0xD4 }
  - { offsetInCU: 0x1D340, offset: 0x1D340, size: 0x8, addend: 0x0, symName: __ZNSt3__117__compressed_pairIPdRNS_9allocatorIdEEEC1B8ue170006IDnS4_EEOT_OT0_, symObjAddr: 0x118E0, symBinAddr: 0x100015B04, symSize: 0x3C }
  - { offsetInCU: 0x1D398, offset: 0x1D398, size: 0x8, addend: 0x0, symName: __ZNSt3__114__split_bufferIdRNS_9allocatorIdEEE7__allocB8ue170006Ev, symObjAddr: 0x1191C, symBinAddr: 0x100015B40, symSize: 0x28 }
  - { offsetInCU: 0x1D3BE, offset: 0x1D3BE, size: 0x8, addend: 0x0, symName: __ZNSt3__114__split_bufferIdRNS_9allocatorIdEEE9__end_capB8ue170006Ev, symObjAddr: 0x11944, symBinAddr: 0x100015B68, symSize: 0x28 }
  - { offsetInCU: 0x1D3E4, offset: 0x1D3E4, size: 0x8, addend: 0x0, symName: __ZNSt3__117__compressed_pairIPdRNS_9allocatorIdEEEC2B8ue170006IDnS4_EEOT_OT0_, symObjAddr: 0x1196C, symBinAddr: 0x100015B90, symSize: 0x48 }
  - { offsetInCU: 0x1D43C, offset: 0x1D43C, size: 0x8, addend: 0x0, symName: __ZNSt3__122__compressed_pair_elemIRNS_9allocatorIdEELi1ELb0EEC2B8ue170006IS3_vEEOT_, symObjAddr: 0x119B4, symBinAddr: 0x100015BD8, symSize: 0x20 }
  - { offsetInCU: 0x1D47E, offset: 0x1D47E, size: 0x8, addend: 0x0, symName: __ZNSt3__117__compressed_pairIPdRNS_9allocatorIdEEE6secondB8ue170006Ev, symObjAddr: 0x119D4, symBinAddr: 0x100015BF8, symSize: 0x28 }
  - { offsetInCU: 0x1D4A4, offset: 0x1D4A4, size: 0x8, addend: 0x0, symName: __ZNSt3__122__compressed_pair_elemIRNS_9allocatorIdEELi1ELb0EE5__getB8ue170006Ev, symObjAddr: 0x119FC, symBinAddr: 0x100015C20, symSize: 0x18 }
  - { offsetInCU: 0x1D4CA, offset: 0x1D4CA, size: 0x8, addend: 0x0, symName: __ZNSt3__117__compressed_pairIPdRNS_9allocatorIdEEE5firstB8ue170006Ev, symObjAddr: 0x11A14, symBinAddr: 0x100015C38, symSize: 0x24 }
  - { offsetInCU: 0x1D4FA, offset: 0x1D4FA, size: 0x8, addend: 0x0, symName: __ZNSt3__114__split_bufferIdRNS_9allocatorIdEEE21_ConstructTransactionC1B8ue170006EPPdm, symObjAddr: 0x11A38, symBinAddr: 0x100015C5C, symSize: 0x3C }
  - { offsetInCU: 0x1D540, offset: 0x1D540, size: 0x8, addend: 0x0, symName: __ZNSt3__114__split_bufferIdRNS_9allocatorIdEEE21_ConstructTransactionD1B8ue170006Ev, symObjAddr: 0x11A74, symBinAddr: 0x100015C98, symSize: 0x2C }
  - { offsetInCU: 0x1D56A, offset: 0x1D56A, size: 0x8, addend: 0x0, symName: __ZNSt3__114__split_bufferIdRNS_9allocatorIdEEE21_ConstructTransactionC2B8ue170006EPPdm, symObjAddr: 0x11AA0, symBinAddr: 0x100015CC4, symSize: 0x44 }
  - { offsetInCU: 0x1D5B0, offset: 0x1D5B0, size: 0x8, addend: 0x0, symName: __ZNSt3__114__split_bufferIdRNS_9allocatorIdEEE21_ConstructTransactionD2B8ue170006Ev, symObjAddr: 0x11AE4, symBinAddr: 0x100015D08, symSize: 0x20 }
  - { offsetInCU: 0x1D5DA, offset: 0x1D5DA, size: 0x8, addend: 0x0, symName: __ZNSt3__116reverse_iteratorIPdEC1B8ue170006ES1_, symObjAddr: 0x11B7C, symBinAddr: 0x100015DA0, symSize: 0x34 }
  - { offsetInCU: 0x1D612, offset: 0x1D612, size: 0x8, addend: 0x0, symName: __ZNKSt3__116reverse_iteratorIPdE4baseB8ue170006Ev, symObjAddr: 0x11BB0, symBinAddr: 0x100015DD4, symSize: 0x18 }
  - { offsetInCU: 0x1D65C, offset: 0x1D65C, size: 0x8, addend: 0x0, symName: __ZNKSt3__111__move_loopINS_17_ClassicAlgPolicyEEclB8ue170006INS_16reverse_iteratorIPdEES6_S6_EENS_4pairIT_T1_EES8_T0_S9_, symObjAddr: 0x11EF4, symBinAddr: 0x100016118, symSize: 0xA0 }
  - { offsetInCU: 0x1D6CD, offset: 0x1D6CD, size: 0x8, addend: 0x0, symName: __ZNSt3__18_IterOpsINS_17_ClassicAlgPolicyEE11__iter_moveB8ue170006IRNS_16reverse_iteratorIPdEEEENS_9enable_ifIXsr12is_referenceIDTdeclsr3stdE7declvalIRT_EEEEE5valueEDTclsr3stdE4movedeclsr3stdE7declvalISA_EEEEE4typeEOS9_, symObjAddr: 0x12128, symBinAddr: 0x10001634C, symSize: 0x28 }
  - { offsetInCU: 0x1D6F9, offset: 0x1D6F9, size: 0x8, addend: 0x0, symName: __ZNKSt3__116reverse_iteratorIPdEdeB8ue170006Ev, symObjAddr: 0x12150, symBinAddr: 0x100016374, symSize: 0x28 }
  - { offsetInCU: 0x1D72D, offset: 0x1D72D, size: 0x8, addend: 0x0, symName: __ZNSt3__116reverse_iteratorIPdEppB8ue170006Ev, symObjAddr: 0x12178, symBinAddr: 0x10001639C, symSize: 0x20 }
  - { offsetInCU: 0x1D753, offset: 0x1D753, size: 0x8, addend: 0x0, symName: __ZNSt3__18_IterOpsINS_17_ClassicAlgPolicyEE25__validate_iter_referenceB8ue170006IRNS_16reverse_iteratorIPdEEEEvv, symObjAddr: 0x12198, symBinAddr: 0x1000163BC, symSize: 0x4 }
  - { offsetInCU: 0x1D771, offset: 0x1D771, size: 0x8, addend: 0x0, symName: __ZNSt3__118__unwrap_iter_implINS_16reverse_iteratorIPdEELb0EE8__unwrapB8ue170006ES3_, symObjAddr: 0x1219C, symBinAddr: 0x1000163C0, symSize: 0x24 }
  - { offsetInCU: 0x1D79A, offset: 0x1D79A, size: 0x8, addend: 0x0, symName: __ZNSt3__14pairINS_16reverse_iteratorIPdEES3_EC1B8ue170006IS3_S3_LPv0EEEOT_OT0_, symObjAddr: 0x121C0, symBinAddr: 0x1000163E4, symSize: 0x3C }
  - { offsetInCU: 0x1D7F8, offset: 0x1D7F8, size: 0x8, addend: 0x0, symName: __ZNSt3__14pairINS_16reverse_iteratorIPdEES3_EC2B8ue170006IS3_S3_LPv0EEEOT_OT0_, symObjAddr: 0x121FC, symBinAddr: 0x100016420, symSize: 0x34 }
  - { offsetInCU: 0x1D856, offset: 0x1D856, size: 0x8, addend: 0x0, symName: __ZNSt3__118__unwrap_iter_implINS_16reverse_iteratorIPdEELb0EE8__rewrapB8ue170006ES3_S3_, symObjAddr: 0x12230, symBinAddr: 0x100016454, symSize: 0x2C }
  - { offsetInCU: 0x1D883, offset: 0x1D883, size: 0x8, addend: 0x0, symName: __ZNSt3__116reverse_iteratorIPdEC2B8ue170006ES1_, symObjAddr: 0x1225C, symBinAddr: 0x100016480, symSize: 0x28 }
  - { offsetInCU: 0x1D8BB, offset: 0x1D8BB, size: 0x8, addend: 0x0, symName: __ZNSt3__114__split_bufferIdRNS_9allocatorIdEEED2Ev, symObjAddr: 0x12284, symBinAddr: 0x1000164A8, symSize: 0x8C }
  - { offsetInCU: 0x1D8E7, offset: 0x1D8E7, size: 0x8, addend: 0x0, symName: __ZNSt3__114__split_bufferIdRNS_9allocatorIdEEE5clearB8ue170006Ev, symObjAddr: 0x12310, symBinAddr: 0x100016534, symSize: 0x28 }
  - { offsetInCU: 0x1D90D, offset: 0x1D90D, size: 0x8, addend: 0x0, symName: __ZNKSt3__114__split_bufferIdRNS_9allocatorIdEEE8capacityB8ue170006Ev, symObjAddr: 0x12338, symBinAddr: 0x10001655C, symSize: 0x40 }
  - { offsetInCU: 0x1D933, offset: 0x1D933, size: 0x8, addend: 0x0, symName: __ZNSt3__114__split_bufferIdRNS_9allocatorIdEEE17__destruct_at_endB8ue170006EPd, symObjAddr: 0x12378, symBinAddr: 0x10001659C, symSize: 0x2C }
  - { offsetInCU: 0x1D967, offset: 0x1D967, size: 0x8, addend: 0x0, symName: __ZNSt3__114__split_bufferIdRNS_9allocatorIdEEE17__destruct_at_endB8ue170006EPdNS_17integral_constantIbLb0EEE, symObjAddr: 0x123A4, symBinAddr: 0x1000165C8, symSize: 0x80 }
  - { offsetInCU: 0x1D9A7, offset: 0x1D9A7, size: 0x8, addend: 0x0, symName: __ZNKSt3__114__split_bufferIdRNS_9allocatorIdEEE9__end_capB8ue170006Ev, symObjAddr: 0x12424, symBinAddr: 0x100016648, symSize: 0x28 }
  - { offsetInCU: 0x1D9CD, offset: 0x1D9CD, size: 0x8, addend: 0x0, symName: __ZNKSt3__117__compressed_pairIPdRNS_9allocatorIdEEE5firstB8ue170006Ev, symObjAddr: 0x1244C, symBinAddr: 0x100016670, symSize: 0x24 }
  - { offsetInCU: 0x1D9F3, offset: 0x1D9F3, size: 0x8, addend: 0x0, symName: __ZNSt3__19basic_iosIcNS_11char_traitsIcEEEC2B8ue170006Ev, symObjAddr: 0x12470, symBinAddr: 0x100016694, symSize: 0x44 }
  - { offsetInCU: 0x1DA1D, offset: 0x1DA1D, size: 0x8, addend: 0x0, symName: __ZNSt3__113basic_ostreamIcNS_11char_traitsIcEEEC2B8ue170006EPNS_15basic_streambufIcS2_EE, symObjAddr: 0x124B4, symBinAddr: 0x1000166D8, symSize: 0x60 }
  - { offsetInCU: 0x1DA62, offset: 0x1DA62, size: 0x8, addend: 0x0, symName: __ZNSt3__18ios_baseC2B8ue170006Ev, symObjAddr: 0x12514, symBinAddr: 0x100016738, symSize: 0x24 }
  - { offsetInCU: 0x1DA8C, offset: 0x1DA8C, size: 0x8, addend: 0x0, symName: __ZNSt3__19basic_iosIcNS_11char_traitsIcEEE4initB8ue170006EPNS_15basic_streambufIcS2_EE, symObjAddr: 0x12538, symBinAddr: 0x10001675C, symSize: 0x44 }
  - { offsetInCU: 0x1DAC3, offset: 0x1DAC3, size: 0x8, addend: 0x0, symName: __ZNSt3__18ios_base9precisionB8ue170006El, symObjAddr: 0x1257C, symBinAddr: 0x1000167A0, symSize: 0x2C }
...
